ccopy_reg
_reconstructor
p0
(cnltk.classify.decisiontree
DecisionTreeClassifier
p1
c__builtin__
object
p2
Ntp3
Rp4
(dp5
S'_fname'
p6
S'next-word'
p7
sS'_label'
p8
I00
sS'_decisions'
p9
(dp10
Vfour
p11
g0
(g1
g2
Ntp12
Rp13
(dp14
g6
Nsg8
I00
sg9
NsS'_default'
p15
NsbsVDoes
p16
g0
(g1
g2
Ntp17
Rp18
(dp19
g6
Nsg8
I00
sg9
Nsg15
NsbsVsleep
p20
g0
(g1
g2
Ntp21
Rp22
(dp23
g6
Nsg8
I00
sg9
Nsg15
NsbsVocean.
p24
g0
(g1
g2
Ntp25
Rp26
(dp27
g6
Nsg8
I00
sg9
Nsg15
NsbsVindoors.
p28
g0
(g1
g2
Ntp29
Rp30
(dp31
g6
Nsg8
I00
sg9
Nsg15
NsbsVcomically
p32
g0
(g1
g2
Ntp33
Rp34
(dp35
g6
Nsg8
I00
sg9
Nsg15
NsbsVUntil
p36
g0
(g1
g2
Ntp37
Rp38
(dp39
g6
Nsg8
I00
sg9
Nsg15
NsbsVconsider
p40
g0
(g1
g2
Ntp41
Rp42
(dp43
g6
Nsg8
I00
sg9
Nsg15
NsbsVup.
p44
g0
(g1
g2
Ntp45
Rp46
(dp47
g6
Nsg8
I00
sg9
Nsg15
NsbsVbuddy
p48
g0
(g1
g2
Ntp49
Rp50
(dp51
g6
Nsg8
I00
sg9
Nsg15
NsbsVSlut
p52
g0
(g1
g2
Ntp53
Rp54
(dp55
g6
Nsg8
I00
sg9
Nsg15
NsbsVsorry
p56
g0
(g1
g2
Ntp57
Rp58
(dp59
g6
Nsg8
I00
sg9
Nsg15
NsbsVoceans
p60
g0
(g1
g2
Ntp61
Rp62
(dp63
g6
Nsg8
I00
sg9
Nsg15
NsbsVMcIntyre
p64
g0
(g1
g2
Ntp65
Rp66
(dp67
g6
Nsg8
I00
sg9
Nsg15
NsbsVEricksen
p68
g0
(g1
g2
Ntp69
Rp70
(dp71
g6
Nsg8
I01
sg9
Nsg15
NsbsVevery
p72
g0
(g1
g2
Ntp73
Rp74
(dp75
g6
Nsg8
I00
sg9
Nsg15
NsbsVvoix
p76
g0
(g1
g2
Ntp77
Rp78
(dp79
g6
Nsg8
I00
sg9
Nsg15
NsbsVscreaming
p80
g0
(g1
g2
Ntp81
Rp82
(dp83
g6
Nsg8
I00
sg9
Nsg15
NsbsVschool
p84
g0
(g1
g2
Ntp85
Rp86
(dp87
g6
Nsg8
I00
sg9
Nsg15
NsbsVref
p88
g0
(g1
g2
Ntp89
Rp90
(dp91
g6
Nsg8
I00
sg9
Nsg15
NsbsVconvenience
p92
g0
(g1
g2
Ntp93
Rp94
(dp95
g6
Nsg8
I00
sg9
Nsg15
NsbsVGo
p96
g0
(g1
g2
Ntp97
Rp98
(dp99
g6
Nsg8
I00
sg9
Nsg15
NsbsVheading
p100
g0
(g1
g2
Ntp101
Rp102
(dp103
g6
Nsg8
I00
sg9
Nsg15
NsbsVclothes
p104
g0
(g1
g2
Ntp105
Rp106
(dp107
g6
Nsg8
I00
sg9
Nsg15
NsbsVScrew
p108
g0
(g1
g2
Ntp109
Rp110
(dp111
g6
Nsg8
I00
sg9
Nsg15
NsbsVTaps
p112
g0
(g1
g2
Ntp113
Rp114
(dp115
g6
Nsg8
I00
sg9
Nsg15
NsbsVher.
p116
g0
(g1
g2
Ntp117
Rp118
(dp119
g6
Nsg8
I00
sg9
Nsg15
NsbsVme.
p120
g0
(g1
g2
Ntp121
Rp122
(dp123
g6
Nsg8
I00
sg9
Nsg15
NsbsVGligor
p124
g0
(g1
g2
Ntp125
Rp126
(dp127
g6
Nsg8
I00
sg9
Nsg15
NsbsVsecond
p128
g0
(g1
g2
Ntp129
Rp130
(dp131
g6
Nsg8
I00
sg9
Nsg15
NsbsVlouder
p132
g0
(g1
g2
Ntp133
Rp134
(dp135
g6
Nsg8
I00
sg9
Nsg15
NsbsVeven
p136
g0
(g1
g2
Ntp137
Rp138
(dp139
g6
Nsg8
I00
sg9
Nsg15
NsbsVfor-the-next-
p140
g0
(g1
g2
Ntp141
Rp142
(dp143
g6
Nsg8
I00
sg9
Nsg15
NsbsVthunder
p144
g0
(g1
g2
Ntp145
Rp146
(dp147
g6
Nsg8
I00
sg9
Nsg15
NsbsVsupplied
p148
g0
(g1
g2
Ntp149
Rp150
(dp151
g6
Nsg8
I00
sg9
Nsg15
NsbsVpours
p152
g0
(g1
g2
Ntp153
Rp154
(dp155
g6
Nsg8
I00
sg9
Nsg15
NsbsVWrong
p156
g0
(g1
g2
Ntp157
Rp158
(dp159
g6
Nsg8
I00
sg9
Nsg15
NsbsVabove
p160
g0
(g1
g2
Ntp161
Rp162
(dp163
g6
Nsg8
I00
sg9
Nsg15
NsbsVPut
p164
g0
(g1
g2
Ntp165
Rp166
(dp167
g6
Nsg8
I00
sg9
Nsg15
NsbsVnew
p168
g0
(g1
g2
Ntp169
Rp170
(dp171
g6
Nsg8
I00
sg9
Nsg15
NsbsVever
p172
g0
(g1
g2
Ntp173
Rp174
(dp175
g6
Nsg8
I00
sg9
Nsg15
NsbsVtold
p176
g0
(g1
g2
Ntp177
Rp178
(dp179
g6
Nsg8
I00
sg9
Nsg15
NsbsS'<END>'
p180
g0
(g1
g2
Ntp181
Rp182
(dp183
g6
Nsg8
I00
sg9
Nsg15
NsbsVhero
p184
g0
(g1
g2
Ntp185
Rp186
(dp187
g6
Nsg8
I00
sg9
Nsg15
NsbsVscreams
p188
g0
(g1
g2
Ntp189
Rp190
(dp191
g6
Nsg8
I00
sg9
Nsg15
NsbsVreasons.
p192
g0
(g1
g2
Ntp193
Rp194
(dp195
g6
Nsg8
I00
sg9
Nsg15
NsbsVhere
p196
g0
(g1
g2
Ntp197
Rp198
(dp199
g6
Nsg8
I00
sg9
Nsg15
NsbsVmet
p200
g0
(g1
g2
Ntp201
Rp202
(dp203
g6
Nsg8
I00
sg9
Nsg15
NsbsVcardboard
p204
g0
(g1
g2
Ntp205
Rp206
(dp207
g6
Nsg8
I00
sg9
Nsg15
NsbsVkids
p208
g0
(g1
g2
Ntp209
Rp210
(dp211
g6
Nsg8
I00
sg9
Nsg15
NsbsVluggage
p212
g0
(g1
g2
Ntp213
Rp214
(dp215
g6
Nsg8
I00
sg9
Nsg15
NsbsVQueen
p216
g0
(g1
g2
Ntp217
Rp218
(dp219
g6
Nsg8
I00
sg9
Nsg15
NsbsVOne.
p220
g0
(g1
g2
Ntp221
Rp222
(dp223
g6
Nsg8
I00
sg9
Nsg15
NsbsVsmoke
p224
g0
(g1
g2
Ntp225
Rp226
(dp227
g6
Nsg8
I00
sg9
Nsg15
NsbsVpermit
p228
g0
(g1
g2
Ntp229
Rp230
(dp231
g6
Nsg8
I00
sg9
Nsg15
NsbsVchanges
p232
g0
(g1
g2
Ntp233
Rp234
(dp235
g6
Nsg8
I00
sg9
Nsg15
NsbsVGoliath
p236
g0
(g1
g2
Ntp237
Rp238
(dp239
g6
Nsg8
I00
sg9
Nsg15
NsbsVmagically
p240
g0
(g1
g2
Ntp241
Rp242
(dp243
g6
Nsg8
I00
sg9
Nsg15
NsbsVSt.
p244
g0
(g1
g2
Ntp245
Rp246
(dp247
g6
Nsg8
I00
sg9
Nsg15
NsbsVfeelings
p248
g0
(g1
g2
Ntp249
Rp250
(dp251
g6
Nsg8
I00
sg9
Nsg15
NsbsVbro
p252
g0
(g1
g2
Ntp253
Rp254
(dp255
g6
Nsg8
I00
sg9
Nsg15
NsbsVBehind
p256
g0
(g1
g2
Ntp257
Rp258
(dp259
g6
Nsg8
I00
sg9
Nsg15
NsbsVBook
p260
g0
(g1
g2
Ntp261
Rp262
(dp263
g6
Nsg8
I00
sg9
Nsg15
NsbsVJed
p264
g0
(g1
g2
Ntp265
Rp266
(dp267
g6
Nsg8
I00
sg9
Nsg15
NsbsVBrowns
p268
g0
(g1
g2
Ntp269
Rp270
(dp271
g6
Nsg8
I00
sg9
Nsg15
NsbsVJen
p272
g0
(g1
g2
Ntp273
Rp274
(dp275
g6
Nsg8
I00
sg9
Nsg15
NsbsVbra
p276
g0
(g1
g2
Ntp277
Rp278
(dp279
g6
Nsg8
I00
sg9
Nsg15
NsbsVWhoa
p280
g0
(g1
g2
Ntp281
Rp282
(dp283
g6
Nsg8
I00
sg9
Nsg15
NsbsVwould
p284
g0
(g1
g2
Ntp285
Rp286
(dp287
g6
Nsg8
I00
sg9
Nsg15
NsbsVconcept.
p288
g0
(g1
g2
Ntp289
Rp290
(dp291
g6
Nsg8
I00
sg9
Nsg15
NsbsVchooses
p292
g0
(g1
g2
Ntp293
Rp294
(dp295
g6
Nsg8
I00
sg9
Nsg15
NsbsVcall
p296
g0
(g1
g2
Ntp297
Rp298
(dp299
g6
Nsg8
I00
sg9
Nsg15
NsbsVcalm
p300
g0
(g1
g2
Ntp301
Rp302
(dp303
g6
Nsg8
I00
sg9
Nsg15
NsbsVright.
p304
g0
(g1
g2
Ntp305
Rp306
(dp307
g6
Nsg8
I00
sg9
Nsg15
NsbsVtype
p308
g0
(g1
g2
Ntp309
Rp310
(dp311
g6
Nsg8
I00
sg9
Nsg15
NsbsVuntil
p312
g0
(g1
g2
Ntp313
Rp314
(dp315
g6
Nsg8
I00
sg9
Nsg15
NsbsVbrings
p316
g0
(g1
g2
Ntp317
Rp318
(dp319
g6
Nsg8
I00
sg9
Nsg15
NsbsVOkay.
p320
g0
(g1
g2
Ntp321
Rp322
(dp323
g6
Nsg8
I00
sg9
Nsg15
NsbsVRule
p324
g0
(g1
g2
Ntp325
Rp326
(dp327
g6
Nsg8
I00
sg9
Nsg15
NsbsVhurt
p328
g0
(g1
g2
Ntp329
Rp330
(dp331
g6
Nsg8
I00
sg9
Nsg15
NsbsVphone
p332
g0
(g1
g2
Ntp333
Rp334
(dp335
g6
Nsg8
I00
sg9
Nsg15
NsbsVDisillusioned
p336
g0
(g1
g2
Ntp337
Rp338
(dp339
g6
Nsg8
I00
sg9
Nsg15
NsbsV...
p340
g0
(g1
g2
Ntp341
Rp342
(dp343
g6
S'word'
p344
sg8
I00
sg9
(dp345
VWhat
p346
g0
(g1
g2
Ntp347
Rp348
(dp349
g6
Nsg8
I00
sg9
Nsg15
Nsbsg40
g0
(g1
g2
Ntp350
Rp351
(dp352
g6
Nsg8
I00
sg9
Nsg15
NsbsVjust
p353
g0
(g1
g2
Ntp354
Rp355
(dp356
g6
Nsg8
I00
sg9
Nsg15
NsbsVover
p357
g0
(g1
g2
Ntp358
Rp359
(dp360
g6
Nsg8
I00
sg9
Nsg15
NsbsVapartment
p361
g0
(g1
g2
Ntp362
Rp363
(dp364
g6
Nsg8
I00
sg9
Nsg15
NsbsVMarvin
p365
g0
(g1
g2
Ntp366
Rp367
(dp368
g6
Nsg8
I00
sg9
Nsg15
NsbsVVince
p369
g0
(g1
g2
Ntp370
Rp371
(dp372
g6
Nsg8
I00
sg9
Nsg15
NsbsVactually
p373
g0
(g1
g2
Ntp374
Rp375
(dp376
g6
Nsg8
I00
sg9
Nsg15
NsbsVto
p377
g0
(g1
g2
Ntp378
Rp379
(dp380
g6
Nsg8
I00
sg9
Nsg15
NsbsVtears
p381
g0
(g1
g2
Ntp382
Rp383
(dp384
g6
Nsg8
I00
sg9
Nsg15
NsbsV...
p385
g0
(g1
g2
Ntp386
Rp387
(dp388
g6
Nsg8
I00
sg9
Nsg15
NsbsVgood
p389
g0
(g1
g2
Ntp390
Rp391
(dp392
g6
Nsg8
I00
sg9
Nsg15
NsbsVearly
p393
g0
(g1
g2
Ntp394
Rp395
(dp396
g6
Nsg8
I00
sg9
Nsg15
NsbsVStella
p397
g0
(g1
g2
Ntp398
Rp399
(dp400
g6
Nsg8
I00
sg9
Nsg15
NsbsVnow
p401
g0
(g1
g2
Ntp402
Rp403
(dp404
g6
Nsg8
I00
sg9
Nsg15
NsbsVday
p405
g0
(g1
g2
Ntp406
Rp407
(dp408
g6
Nsg8
I00
sg9
Nsg15
NsbsVlike
p409
g0
(g1
g2
Ntp410
Rp411
(dp412
g6
Nsg8
I00
sg9
Nsg15
NsbsVcleanups
p413
g0
(g1
g2
Ntp414
Rp415
(dp416
g6
Nsg8
I00
sg9
Nsg15
NsbsVintelligent
p417
g0
(g1
g2
Ntp418
Rp419
(dp420
g6
Nsg8
I00
sg9
Nsg15
NsbsVstupid
p421
g0
(g1
g2
Ntp422
Rp423
(dp424
g6
Nsg8
I00
sg9
Nsg15
NsbsVchange.You
p425
g0
(g1
g2
Ntp426
Rp427
(dp428
g6
Nsg8
I00
sg9
Nsg15
NsbsVnight
p429
g0
(g1
g2
Ntp430
Rp431
(dp432
g6
Nsg8
I00
sg9
Nsg15
NsbsVspecial
p433
g0
(g1
g2
Ntp434
Rp435
(dp436
g6
Nsg8
I00
sg9
Nsg15
NsbsVListen
p437
g0
(g1
g2
Ntp438
Rp439
(dp440
g6
Nsg8
I00
sg9
Nsg15
NsbsVnightmare
p441
g0
(g1
g2
Ntp442
Rp443
(dp444
g6
Nsg8
I00
sg9
Nsg15
NsbsVrings
p445
g0
(g1
g2
Ntp446
Rp447
(dp448
g6
Nsg8
I00
sg9
Nsg15
NsbsVever
p449
g0
(g1
g2
Ntp450
Rp451
(dp452
g6
Nsg8
I00
sg9
Nsg15
NsbsVchose
p453
g0
(g1
g2
Ntp454
Rp455
(dp456
g6
Nsg8
I00
sg9
Nsg15
NsbsVUm
p457
g0
(g1
g2
Ntp458
Rp459
(dp460
g6
Nsg8
I00
sg9
Nsg15
NsbsVpressure
p461
g0
(g1
g2
Ntp462
Rp463
(dp464
g6
Nsg8
I00
sg9
Nsg15
NsbsVUh
p465
g0
(g1
g2
Ntp466
Rp467
(dp468
g6
Nsg8
I00
sg9
Nsg15
NsbsVHello
p469
g0
(g1
g2
Ntp470
Rp471
(dp472
g6
Nsg8
I00
sg9
Nsg15
NsbsVgreat
p473
g0
(g1
g2
Ntp474
Rp475
(dp476
g6
Nsg8
I00
sg9
Nsg15
NsbsVor
p477
g0
(g1
g2
Ntp478
Rp479
(dp480
g6
Nsg8
I00
sg9
Nsg15
NsbsVlove
p481
g0
(g1
g2
Ntp482
Rp483
(dp484
g6
Nsg8
I00
sg9
Nsg15
NsbsVNo
p485
g0
(g1
g2
Ntp486
Rp487
(dp488
g6
Nsg8
I00
sg9
Nsg15
NsbsVappeared
p489
g0
(g1
g2
Ntp490
Rp491
(dp492
g6
Nsg8
I00
sg9
Nsg15
NsbsVone
p493
g0
(g1
g2
Ntp494
Rp495
(dp496
g6
Nsg8
I00
sg9
Nsg15
NsbsVFinally
p497
g0
(g1
g2
Ntp498
Rp499
(dp500
g6
Nsg8
I00
sg9
Nsg15
NsbsVguess
p501
g0
(g1
g2
Ntp502
Rp503
(dp504
g6
Nsg8
I00
sg9
Nsg15
NsbsVfrom
p505
g0
(g1
g2
Ntp506
Rp507
(dp508
g6
Nsg8
I00
sg9
Nsg15
NsbsVthree
p509
g0
(g1
g2
Ntp510
Rp511
(dp512
g6
Nsg8
I00
sg9
Nsg15
NsbsVBut
p513
g0
(g1
g2
Ntp514
Rp515
(dp516
g6
Nsg8
I00
sg9
Nsg15
NsbsVdropping
p517
g0
(g1
g2
Ntp518
Rp519
(dp520
g6
Nsg8
I00
sg9
Nsg15
NsbsVdamn
p521
g0
(g1
g2
Ntp522
Rp523
(dp524
g6
Nsg8
I00
sg9
Nsg15
NsbsV:
p525
g0
(g1
g2
Ntp526
Rp527
(dp528
g6
Nsg8
I00
sg9
Nsg15
NsbsVwas
p529
g0
(g1
g2
Ntp530
Rp531
(dp532
g6
Nsg8
I00
sg9
Nsg15
NsbsVfriend
p533
g0
(g1
g2
Ntp534
Rp535
(dp536
g6
Nsg8
I00
sg9
Nsg15
NsbsVmore
p537
g0
(g1
g2
Ntp538
Rp539
(dp540
g6
Nsg8
I00
sg9
Nsg15
NsbsVbuilding
p541
g0
(g1
g2
Ntp542
Rp543
(dp544
g6
Nsg8
I00
sg9
Nsg15
NsbsVlife
p545
g0
(g1
g2
Ntp546
Rp547
(dp548
g6
Nsg8
I00
sg9
Nsg15
NsbsVdoor
p549
g0
(g1
g2
Ntp550
Rp551
(dp552
g6
Nsg8
I00
sg9
Nsg15
NsbsVthat
p553
g0
(g1
g2
Ntp554
Rp555
(dp556
g6
Nsg8
I00
sg9
Nsg15
NsbsVWell
p557
g0
(g1
g2
Ntp558
Rp559
(dp560
g6
Nsg8
I00
sg9
Nsg15
NsbsVbut
p561
g0
(g1
g2
Ntp562
Rp563
(dp564
g6
Nsg8
I00
sg9
Nsg15
NsbsVSo
p565
g0
(g1
g2
Ntp566
Rp567
(dp568
g6
Nsg8
I00
sg9
Nsg15
NsbsVsalad
p569
g0
(g1
g2
Ntp570
Rp571
(dp572
g6
Nsg8
I00
sg9
Nsg15
NsbsVinside
p573
g0
(g1
g2
Ntp574
Rp575
(dp576
g6
Nsg8
I00
sg9
Nsg15
NsbsVTed
p577
g0
(g1
g2
Ntp578
Rp579
(dp580
g6
Nsg8
I01
sg9
Nsg15
NsbsVum
p581
g0
(g1
g2
Ntp582
Rp583
(dp584
g6
Nsg8
I00
sg9
Nsg15
NsbsVremain
p585
g0
(g1
g2
Ntp586
Rp587
(dp588
g6
Nsg8
I00
sg9
Nsg15
NsbsVuh
p589
g0
(g1
g2
Ntp590
Rp591
(dp592
g6
Nsg8
I00
sg9
Nsg15
NsbsVhappy
p593
g0
(g1
g2
Ntp594
Rp595
(dp596
g6
Nsg8
I00
sg9
Nsg15
NsbsVand
p597
g0
(g1
g2
Ntp598
Rp599
(dp600
g6
Nsg8
I00
sg9
Nsg15
NsbsVplate
p601
g0
(g1
g2
Ntp602
Rp603
(dp604
g6
Nsg8
I00
sg9
Nsg15
NsbsVis
p605
g0
(g1
g2
Ntp606
Rp607
(dp608
g6
Nsg8
I00
sg9
Nsg15
NsbsVit
p609
g0
(g1
g2
Ntp610
Rp611
(dp612
g6
Nsg8
I00
sg9
Nsg15
NsbsVseen
p613
g0
(g1
g2
Ntp614
Rp615
(dp616
g6
Nsg8
I00
sg9
Nsg15
NsbsVYou
p617
g0
(g1
g2
Ntp618
Rp619
(dp620
g6
Nsg8
I00
sg9
Nsg15
NsbsVfilm
p621
g0
(g1
g2
Ntp622
Rp623
(dp624
g6
Nsg8
I00
sg9
Nsg15
NsbsV'll
p625
g0
(g1
g2
Ntp626
Rp627
(dp628
g6
Nsg8
I00
sg9
Nsg15
NsbsVno
p629
g0
(g1
g2
Ntp630
Rp631
(dp632
g6
Nsg8
I00
sg9
Nsg15
NsbsVna
p633
g0
(g1
g2
Ntp634
Rp635
(dp636
g6
Nsg8
I00
sg9
Nsg15
NsbsVyou
p637
g0
(g1
g2
Ntp638
Rp639
(dp640
g6
Nsg8
I00
sg9
Nsg15
NsbsVFriends
p641
g0
(g1
g2
Ntp642
Rp643
(dp644
g6
Nsg8
I00
sg9
Nsg15
NsbsV's
p645
g0
(g1
g2
Ntp646
Rp647
(dp648
g6
Nsg8
I00
sg9
Nsg15
NsbsVattend
p649
g0
(g1
g2
Ntp650
Rp651
(dp652
g6
Nsg8
I00
sg9
Nsg15
NsbsVI
p653
g0
(g1
g2
Ntp654
Rp655
(dp656
g6
Nsg8
I00
sg9
Nsg15
NsbsVlegen
p657
g0
(g1
g2
Ntp658
Rp659
(dp660
g6
Nsg8
I00
sg9
Nsg15
NsbsVchance
p661
g0
(g1
g2
Ntp662
Rp663
(dp664
g6
Nsg8
I00
sg9
Nsg15
NsbsVa
p665
g0
(g1
g2
Ntp666
Rp667
(dp668
g6
Nsg8
I00
sg9
Nsg15
NsbsVforever
p669
g0
(g1
g2
Ntp670
Rp671
(dp672
g6
Nsg8
I00
sg9
Nsg15
NsbsVnatural
p673
g0
(g1
g2
Ntp674
Rp675
(dp676
g6
Nsg8
I00
sg9
Nsg15
NsbsVasked
p677
g0
(g1
g2
Ntp678
Rp679
(dp680
g6
Nsg8
I00
sg9
Nsg15
NsbsVso
p681
g0
(g1
g2
Ntp682
Rp683
(dp684
g6
Nsg8
I00
sg9
Nsg15
NsbsVserious
p685
g0
(g1
g2
Ntp686
Rp687
(dp688
g6
Nsg8
I00
sg9
Nsg15
NsbsVthe
p689
g0
(g1
g2
Ntp690
Rp691
(dp692
g6
Nsg8
I00
sg9
Nsg15
NsbsVfact
p693
g0
(g1
g2
Ntp694
Rp695
(dp696
g6
Nsg8
I00
sg9
Nsg15
Nsbssg15
NsbsVseparates
p697
g0
(g1
g2
Ntp698
Rp699
(dp700
g6
Nsg8
I00
sg9
Nsg15
NsbsVmust
p701
g0
(g1
g2
Ntp702
Rp703
(dp704
g6
Nsg8
I00
sg9
Nsg15
NsbsVme
p705
g0
(g1
g2
Ntp706
Rp707
(dp708
g6
Nsg8
I00
sg9
Nsg15
NsbsVlocked
p709
g0
(g1
g2
Ntp710
Rp711
(dp712
g6
Nsg8
I00
sg9
Nsg15
NsbsVroom
p713
g0
(g1
g2
Ntp714
Rp715
(dp716
g6
Nsg8
I00
sg9
Nsg15
NsbsVFlatter
p717
g0
(g1
g2
Ntp718
Rp719
(dp720
g6
Nsg8
I00
sg9
Nsg15
NsbsVwork
p721
g0
(g1
g2
Ntp722
Rp723
(dp724
g6
Nsg8
I00
sg9
Nsg15
NsbsVcuddly
p725
g0
(g1
g2
Ntp726
Rp727
(dp728
g6
Nsg8
I00
sg9
Nsg15
NsbsVlocket
p729
g0
(g1
g2
Ntp730
Rp731
(dp732
g6
Nsg8
I00
sg9
Nsg15
NsbsVmy
p733
g0
(g1
g2
Ntp734
Rp735
(dp736
g6
Nsg8
I00
sg9
Nsg15
NsbsVgive
p737
g0
(g1
g2
Ntp738
Rp739
(dp740
g6
Nsg8
I00
sg9
Nsg15
NsbsVlaughs
p741
g0
(g1
g2
Ntp742
Rp743
(dp744
g6
Nsg8
I00
sg9
Nsg15
NsbsVJerry
p745
g0
(g1
g2
Ntp746
Rp747
(dp748
g6
Nsg8
I00
sg9
Nsg15
NsbsVwant
p749
g0
(g1
g2
Ntp750
Rp751
(dp752
g6
Nsg8
I00
sg9
Nsg15
NsbsVkeep
p753
g0
(g1
g2
Ntp754
Rp755
(dp756
g6
Nsg8
I00
sg9
Nsg15
NsbsVLiz
p757
g0
(g1
g2
Ntp758
Rp759
(dp760
g6
Nsg8
I00
sg9
Nsg15
NsbsVguarantee
p761
g0
(g1
g2
Ntp762
Rp763
(dp764
g6
Nsg8
I00
sg9
Nsg15
NsbsVceremony
p765
g0
(g1
g2
Ntp766
Rp767
(dp768
g6
Nsg8
I00
sg9
Nsg15
NsbsVLA
p769
g0
(g1
g2
Ntp770
Rp771
(dp772
g6
Nsg8
I00
sg9
Nsg15
NsbsVhon
p773
g0
(g1
g2
Ntp774
Rp775
(dp776
g6
Nsg8
I00
sg9
Nsg15
NsbsVcigarette.
p777
g0
(g1
g2
Ntp778
Rp779
(dp780
g6
Nsg8
I00
sg9
Nsg15
NsbsVdamage
p781
g0
(g1
g2
Ntp782
Rp783
(dp784
g6
Nsg8
I00
sg9
Nsg15
NsbsVRonkonkoma
p785
g0
(g1
g2
Ntp786
Rp787
(dp788
g6
Nsg8
I00
sg9
Nsg15
NsbsVmachine
p789
g0
(g1
g2
Ntp790
Rp791
(dp792
g6
Nsg8
I00
sg9
Nsg15
NsbsVhow
p793
g0
(g1
g2
Ntp794
Rp795
(dp796
g6
Nsg8
I00
sg9
Nsg15
NsbsVhot
p797
g0
(g1
g2
Ntp798
Rp799
(dp800
g6
Nsg8
I00
sg9
Nsg15
NsbsVfaulty
p801
g0
(g1
g2
Ntp802
Rp803
(dp804
g6
Nsg8
I00
sg9
Nsg15
NsbsVpizza
p805
g0
(g1
g2
Ntp806
Rp807
(dp808
g6
Nsg8
I00
sg9
Nsg15
NsbsVA
p809
g0
(g1
g2
Ntp810
Rp811
(dp812
g6
Nsg8
I00
sg9
Nsg15
NsbsVsomebody.
p813
g0
(g1
g2
Ntp814
Rp815
(dp816
g6
Nsg8
I00
sg9
Nsg15
NsbsVsscotch
p817
g0
(g1
g2
Ntp818
Rp819
(dp820
g6
Nsg8
I00
sg9
Nsg15
NsbsVafter
p821
g0
(g1
g2
Ntp822
Rp823
(dp824
g6
Nsg8
I00
sg9
Nsg15
NsbsVWill
p825
g0
(g1
g2
Ntp826
Rp827
(dp828
g6
Nsg8
I00
sg9
Nsg15
NsbsVwrong
p829
g0
(g1
g2
Ntp830
Rp831
(dp832
g6
Nsg8
I00
sg9
Nsg15
NsbsVlap
p833
g0
(g1
g2
Ntp834
Rp835
(dp836
g6
Nsg8
I00
sg9
Nsg15
NsbsVCarlos
p837
g0
(g1
g2
Ntp838
Rp839
(dp840
g6
Nsg8
I00
sg9
Nsg15
NsbsVJeanette
p841
g0
(g1
g2
Ntp842
Rp843
(dp844
g6
Nsg8
I00
sg9
Nsg15
NsbsVAll
p845
g0
(g1
g2
Ntp846
Rp847
(dp848
g6
Nsg8
I00
sg9
Nsg15
NsbsVthird
p849
g0
(g1
g2
Ntp850
Rp851
(dp852
g6
Nsg8
I00
sg9
Nsg15
NsbsVscoffs
p853
g0
(g1
g2
Ntp854
Rp855
(dp856
g6
Nsg8
I00
sg9
Nsg15
NsbsVthink
p857
g0
(g1
g2
Ntp858
Rp859
(dp860
g6
Nsg8
I00
sg9
Nsg15
NsbsVstill.
p861
g0
(g1
g2
Ntp862
Rp863
(dp864
g6
Nsg8
I00
sg9
Nsg15
NsbsVupside
p865
g0
(g1
g2
Ntp866
Rp867
(dp868
g6
Nsg8
I00
sg9
Nsg15
NsbsVultimate
p869
g0
(g1
g2
Ntp870
Rp871
(dp872
g6
Nsg8
I00
sg9
Nsg15
NsbsVQuinn
p873
g0
(g1
g2
Ntp874
Rp875
(dp876
g6
Nsg8
I00
sg9
Nsg15
NsbsVenter
p877
g0
(g1
g2
Ntp878
Rp879
(dp880
g6
Nsg8
I00
sg9
Nsg15
NsbsVworst
p881
g0
(g1
g2
Ntp882
Rp883
(dp884
g6
Nsg8
I00
sg9
Nsg15
NsbsVorder
p885
g0
(g1
g2
Ntp886
Rp887
(dp888
g6
Nsg8
I00
sg9
Nsg15
NsbsVBlue
p889
g0
(g1
g2
Ntp890
Rp891
(dp892
g6
Nsg8
I00
sg9
Nsg15
NsbsVoffice
p893
g0
(g1
g2
Ntp894
Rp895
(dp896
g6
Nsg8
I00
sg9
Nsg15
NsbsVover
p897
g0
(g1
g2
Ntp898
Rp899
(dp900
g6
Nsg8
I00
sg9
Nsg15
NsbsVdown.
p901
g0
(g1
g2
Ntp902
Rp903
(dp904
g6
Nsg8
I00
sg9
Nsg15
NsbsVbefore
p905
g0
(g1
g2
Ntp906
Rp907
(dp908
g6
Nsg8
I00
sg9
Nsg15
NsbsVscoring
p909
g0
(g1
g2
Ntp910
Rp911
(dp912
g6
Nsg8
I00
sg9
Nsg15
NsbsV,
p913
g0
(g1
g2
Ntp914
Rp915
(dp916
g6
Nsg8
I00
sg9
Nsg15
NsbsVbetter
p917
g0
(g1
g2
Ntp918
Rp919
(dp920
g6
Nsg8
I00
sg9
Nsg15
NsbsVweeks
p921
g0
(g1
g2
Ntp922
Rp923
(dp924
g6
Nsg8
I00
sg9
Nsg15
NsbsVeasier
p925
g0
(g1
g2
Ntp926
Rp927
(dp928
g6
Nsg8
I00
sg9
Nsg15
NsbsVthen
p929
g0
(g1
g2
Ntp930
Rp931
(dp932
g6
Nsg8
I00
sg9
Nsg15
NsbsVthem
p933
g0
(g1
g2
Ntp934
Rp935
(dp936
g6
Nsg8
I00
sg9
Nsg15
NsbsVKids
p937
g0
(g1
g2
Ntp938
Rp939
(dp940
g6
Nsg8
I00
sg9
Nsg15
NsbsVyoung.
p941
g0
(g1
g2
Ntp942
Rp943
(dp944
g6
Nsg8
I00
sg9
Nsg15
NsbsVroommate
p945
g0
(g1
g2
Ntp946
Rp947
(dp948
g6
Nsg8
I00
sg9
Nsg15
NsbsVthey
p949
g0
(g1
g2
Ntp950
Rp951
(dp952
g6
Nsg8
I00
sg9
Nsg15
NsbsVone
p953
g0
(g1
g2
Ntp954
Rp955
(dp956
g6
Nsg8
I00
sg9
Nsg15
NsbsVlifelong
p957
g0
(g1
g2
Ntp958
Rp959
(dp960
g6
Nsg8
I00
sg9
Nsg15
NsbsVsilver
p961
g0
(g1
g2
Ntp962
Rp963
(dp964
g6
Nsg8
I00
sg9
Nsg15
NsbsVbank
p965
g0
(g1
g2
Ntp966
Rp967
(dp968
g6
Nsg8
I00
sg9
Nsg15
NsbsVweek.
p969
g0
(g1
g2
Ntp970
Rp971
(dp972
g6
Nsg8
I00
sg9
Nsg15
NsbsVpotatoes
p973
g0
(g1
g2
Ntp974
Rp975
(dp976
g6
Nsg8
I00
sg9
Nsg15
NsbsVgood
p977
g0
(g1
g2
Ntp978
Rp979
(dp980
g6
Nsg8
I00
sg9
Nsg15
NsbsVpanini
p981
g0
(g1
g2
Ntp982
Rp983
(dp984
g6
Nsg8
I00
sg9
Nsg15
NsbsVvictory
p985
g0
(g1
g2
Ntp986
Rp987
(dp988
g6
Nsg8
I00
sg9
Nsg15
NsbsVeach
p989
g0
(g1
g2
Ntp990
Rp991
(dp992
g6
Nsg8
I00
sg9
Nsg15
NsbsVwent
p993
g0
(g1
g2
Ntp994
Rp995
(dp996
g6
Nsg8
I00
sg9
Nsg15
NsbsVside
p997
g0
(g1
g2
Ntp998
Rp999
(dp1000
g6
Nsg8
I00
sg9
Nsg15
NsbsVmean
p1001
g0
(g1
g2
Ntp1002
Rp1003
(dp1004
g6
Nsg8
I00
sg9
Nsg15
NsbsVsigning
p1005
g0
(g1
g2
Ntp1006
Rp1007
(dp1008
g6
Nsg8
I00
sg9
Nsg15
NsbsVsnakes
p1009
g0
(g1
g2
Ntp1010
Rp1011
(dp1012
g6
Nsg8
I00
sg9
Nsg15
NsbsVWow
p1013
g0
(g1
g2
Ntp1014
Rp1015
(dp1016
g6
Nsg8
I00
sg9
Nsg15
NsbsVtaught
p1017
g0
(g1
g2
Ntp1018
Rp1019
(dp1020
g6
Nsg8
I00
sg9
Nsg15
NsbsVforgot
p1021
g0
(g1
g2
Ntp1022
Rp1023
(dp1024
g6
Nsg8
I00
sg9
Nsg15
NsbsVsounds
p1025
g0
(g1
g2
Ntp1026
Rp1027
(dp1028
g6
Nsg8
I00
sg9
Nsg15
NsbsVgon
p1029
g0
(g1
g2
Ntp1030
Rp1031
(dp1032
g6
Nsg8
I00
sg9
Nsg15
NsbsVwashed
p1033
g0
(g1
g2
Ntp1034
Rp1035
(dp1036
g6
Nsg8
I00
sg9
Nsg15
NsbsVday.
p1037
g0
(g1
g2
Ntp1038
Rp1039
(dp1040
g6
Nsg8
I00
sg9
Nsg15
NsbsVsurprise
p1041
g0
(g1
g2
Ntp1042
Rp1043
(dp1044
g6
Nsg8
I00
sg9
Nsg15
NsbsVHold
p1045
g0
(g1
g2
Ntp1046
Rp1047
(dp1048
g6
Nsg8
I00
sg9
Nsg15
NsbsVturning
p1049
g0
(g1
g2
Ntp1050
Rp1051
(dp1052
g6
Nsg8
I00
sg9
Nsg15
NsbsVcutesy
p1053
g0
(g1
g2
Ntp1054
Rp1055
(dp1056
g6
Nsg8
I00
sg9
Nsg15
NsbsVgiven
p1057
g0
(g1
g2
Ntp1058
Rp1059
(dp1060
g6
Nsg8
I00
sg9
Nsg15
NsbsVfree
p1061
g0
(g1
g2
Ntp1062
Rp1063
(dp1064
g6
Nsg8
I00
sg9
Nsg15
NsbsVsmacking
p1065
g0
(g1
g2
Ntp1066
Rp1067
(dp1068
g6
Nsg8
I00
sg9
Nsg15
NsbsVtechno
p1069
g0
(g1
g2
Ntp1070
Rp1071
(dp1072
g6
Nsg8
I00
sg9
Nsg15
NsbsVwanted
p1073
g0
(g1
g2
Ntp1074
Rp1075
(dp1076
g6
Nsg8
I00
sg9
Nsg15
Nsbsg657
g0
(g1
g2
Ntp1077
Rp1078
(dp1079
g6
Nsg8
I00
sg9
Nsg15
NsbsVate
p1080
g0
(g1
g2
Ntp1081
Rp1082
(dp1083
g6
Nsg8
I00
sg9
Nsg15
NsbsVChad
p1084
g0
(g1
g2
Ntp1085
Rp1086
(dp1087
g6
Nsg8
I00
sg9
Nsg15
NsbsVI-I
p1088
g0
(g1
g2
Ntp1089
Rp1090
(dp1091
g6
Nsg8
I00
sg9
Nsg15
NsbsVNational
p1092
g0
(g1
g2
Ntp1093
Rp1094
(dp1095
g6
Nsg8
I00
sg9
Nsg15
NsbsVmoved.
p1096
g0
(g1
g2
Ntp1097
Rp1098
(dp1099
g6
Nsg8
I00
sg9
Nsg15
NsbsVYork.
p1100
g0
(g1
g2
Ntp1101
Rp1102
(dp1103
g6
Nsg8
I00
sg9
Nsg15
NsbsVarrived
p1104
g0
(g1
g2
Ntp1105
Rp1106
(dp1107
g6
Nsg8
I00
sg9
Nsg15
NsbsVloud
p1108
g0
(g1
g2
Ntp1109
Rp1110
(dp1111
g6
Nsg8
I00
sg9
Nsg15
NsbsVcaught
p1112
g0
(g1
g2
Ntp1113
Rp1114
(dp1115
g6
Nsg8
I00
sg9
Nsg15
NsbsVpurpose
p1116
g0
(g1
g2
Ntp1117
Rp1118
(dp1119
g6
Nsg8
I00
sg9
Nsg15
NsbsValready
p1120
g0
(g1
g2
Ntp1121
Rp1122
(dp1123
g6
Nsg8
I00
sg9
Nsg15
NsbsVPlease
p1124
g0
(g1
g2
Ntp1125
Rp1126
(dp1127
g6
Nsg8
I00
sg9
Nsg15
NsbsVCell
p1128
g0
(g1
g2
Ntp1129
Rp1130
(dp1131
g6
Nsg8
I00
sg9
Nsg15
NsbsVhook
p1132
g0
(g1
g2
Ntp1133
Rp1134
(dp1135
g6
Nsg8
I00
sg9
Nsg15
NsbsVblossomed
p1136
g0
(g1
g2
Ntp1137
Rp1138
(dp1139
g6
Nsg8
I00
sg9
Nsg15
NsbsVanother
p1140
g0
(g1
g2
Ntp1141
Rp1142
(dp1143
g6
Nsg8
I00
sg9
Nsg15
NsbsVelectronic
p1144
g0
(g1
g2
Ntp1145
Rp1146
(dp1147
g6
Nsg8
I00
sg9
Nsg15
NsbsVhydrant
p1148
g0
(g1
g2
Ntp1149
Rp1150
(dp1151
g6
Nsg8
I00
sg9
Nsg15
NsbsVgirls
p1152
g0
(g1
g2
Ntp1153
Rp1154
(dp1155
g6
Nsg8
I00
sg9
Nsg15
NsbsVelevator
p1156
g0
(g1
g2
Ntp1157
Rp1158
(dp1159
g6
Nsg8
I00
sg9
Nsg15
NsbsVneeded
p1160
g0
(g1
g2
Ntp1161
Rp1162
(dp1163
g6
Nsg8
I00
sg9
Nsg15
NsbsVUncle
p1164
g0
(g1
g2
Ntp1165
Rp1166
(dp1167
g6
Nsg8
I00
sg9
Nsg15
NsbsVtoo
p1168
g0
(g1
g2
Ntp1169
Rp1170
(dp1171
g6
Nsg8
I00
sg9
Nsg15
NsbsVTijuana
p1172
g0
(g1
g2
Ntp1173
Rp1174
(dp1175
g6
Nsg8
I00
sg9
Nsg15
NsbsVdogs
p1176
g0
(g1
g2
Ntp1177
Rp1178
(dp1179
g6
Nsg8
I00
sg9
Nsg15
NsbsVlisten
p1180
g0
(g1
g2
Ntp1181
Rp1182
(dp1183
g6
Nsg8
I00
sg9
Nsg15
NsbsVHenrietta
p1184
g0
(g1
g2
Ntp1185
Rp1186
(dp1187
g6
Nsg8
I00
sg9
Nsg15
NsbsVB
p1188
g0
(g1
g2
Ntp1189
Rp1190
(dp1191
g6
Nsg8
I00
sg9
Nsg15
NsbsVcereal
p1192
g0
(g1
g2
Ntp1193
Rp1194
(dp1195
g6
Nsg8
I00
sg9
Nsg15
NsbsVWait.
p1196
g0
(g1
g2
Ntp1197
Rp1198
(dp1199
g6
Nsg8
I00
sg9
Nsg15
NsbsVWaitress
p1200
g0
(g1
g2
Ntp1201
Rp1202
(dp1203
g6
Nsg8
I00
sg9
Nsg15
NsbsVdog.
p1204
g0
(g1
g2
Ntp1205
Rp1206
(dp1207
g6
Nsg8
I00
sg9
Nsg15
NsbsVspoiler
p1208
g0
(g1
g2
Ntp1209
Rp1210
(dp1211
g6
Nsg8
I00
sg9
Nsg15
NsbsVCode
p1212
g0
(g1
g2
Ntp1213
Rp1214
(dp1215
g6
Nsg8
I00
sg9
Nsg15
NsbsVroles
p1216
g0
(g1
g2
Ntp1217
Rp1218
(dp1219
g6
Nsg8
I00
sg9
Nsg15
NsbsVnight.
p1220
g0
(g1
g2
Ntp1221
Rp1222
(dp1223
g6
Nsg8
I00
sg9
Nsg15
NsbsVzero
p1224
g0
(g1
g2
Ntp1225
Rp1226
(dp1227
g6
Nsg8
I00
sg9
Nsg15
NsbsVZoey
p1228
g0
(g1
g2
Ntp1229
Rp1230
(dp1231
g6
Nsg8
I00
sg9
Nsg15
NsbsVshower
p1232
g0
(g1
g2
Ntp1233
Rp1234
(dp1235
g6
Nsg8
I00
sg9
Nsg15
NsbsVgirl.
p1236
g0
(g1
g2
Ntp1237
Rp1238
(dp1239
g6
Nsg8
I00
sg9
Nsg15
NsbsVSee
p1240
g0
(g1
g2
Ntp1241
Rp1242
(dp1243
g6
Nsg8
I00
sg9
Nsg15
NsbsVlingering
p1244
g0
(g1
g2
Ntp1245
Rp1246
(dp1247
g6
Nsg8
I00
sg9
Nsg15
NsbsVfeeling
p1248
g0
(g1
g2
Ntp1249
Rp1250
(dp1251
g6
Nsg8
I00
sg9
Nsg15
NsbsVgroaning
p1252
g0
(g1
g2
Ntp1253
Rp1254
(dp1255
g6
Nsg8
I00
sg9
Nsg15
NsbsVran
p1256
g0
(g1
g2
Ntp1257
Rp1258
(dp1259
g6
Nsg8
I00
sg9
Nsg15
NsbsVmind
p1260
g0
(g1
g2
Ntp1261
Rp1262
(dp1263
g6
Nsg8
I00
sg9
Nsg15
NsbsVtalking
p1264
g0
(g1
g2
Ntp1265
Rp1266
(dp1267
g6
Nsg8
I00
sg9
Nsg15
NsbsVunappetizing
p1268
g0
(g1
g2
Ntp1269
Rp1270
(dp1271
g6
Nsg8
I00
sg9
Nsg15
NsbsVseen
p1272
g0
(g1
g2
Ntp1273
Rp1274
(dp1275
g6
Nsg8
I00
sg9
Nsg15
NsbsVseem
p1276
g0
(g1
g2
Ntp1277
Rp1278
(dp1279
g6
Nsg8
I00
sg9
Nsg15
NsbsVgrunts
p1280
g0
(g1
g2
Ntp1281
Rp1282
(dp1283
g6
Nsg8
I00
sg9
Nsg15
NsbsVThen
p1284
g0
(g1
g2
Ntp1285
Rp1286
(dp1287
g6
Nsg8
I00
sg9
Nsg15
NsbsVguys.
p1288
g0
(g1
g2
Ntp1289
Rp1290
(dp1291
g6
Nsg8
I00
sg9
Nsg15
NsbsVlatter
p1292
g0
(g1
g2
Ntp1293
Rp1294
(dp1295
g6
Nsg8
I00
sg9
Nsg15
NsbsVresponsible
p1296
g0
(g1
g2
Ntp1297
Rp1298
(dp1299
g6
Nsg8
I00
sg9
Nsg15
NsbsVsnow
p1300
g0
(g1
g2
Ntp1301
Rp1302
(dp1303
g6
Nsg8
I00
sg9
Nsg15
NsbsVThey
p1304
g0
(g1
g2
Ntp1305
Rp1306
(dp1307
g6
Nsg8
I00
sg9
Nsg15
NsbsVHiman
p1308
g0
(g1
g2
Ntp1309
Rp1310
(dp1311
g6
Nsg8
I00
sg9
Nsg15
NsbsVthough
p1312
g0
(g1
g2
Ntp1313
Rp1314
(dp1315
g6
Nsg8
I00
sg9
Nsg15
NsbsVFrozen
p1316
g0
(g1
g2
Ntp1317
Rp1318
(dp1319
g6
Nsg8
I00
sg9
Nsg15
NsbsVvisionary
p1320
g0
(g1
g2
Ntp1321
Rp1322
(dp1323
g6
Nsg8
I00
sg9
Nsg15
NsbsVLucy
p1324
g0
(g1
g2
Ntp1325
Rp1326
(dp1327
g6
Nsg8
I00
sg9
Nsg15
NsbsVmashed
p1328
g0
(g1
g2
Ntp1329
Rp1330
(dp1331
g6
Nsg8
I00
sg9
Nsg15
NsbsVlong.
p1332
g0
(g1
g2
Ntp1333
Rp1334
(dp1335
g6
Nsg8
I00
sg9
Nsg15
NsbsVhorrible.
p1336
g0
(g1
g2
Ntp1337
Rp1338
(dp1339
g6
Nsg8
I00
sg9
Nsg15
NsbsVTwelve
p1340
g0
(g1
g2
Ntp1341
Rp1342
(dp1343
g6
Nsg8
I00
sg9
Nsg15
NsbsVsinger
p1344
g0
(g1
g2
Ntp1345
Rp1346
(dp1347
g6
Nsg8
I00
sg9
Nsg15
NsbsVdoor.
p1348
g0
(g1
g2
Ntp1349
Rp1350
(dp1351
g6
Nsg8
I00
sg9
Nsg15
NsbsVaunt
p1352
g0
(g1
g2
Ntp1353
Rp1354
(dp1355
g6
Nsg8
I00
sg9
Nsg15
NsbsVWant
p1356
g0
(g1
g2
Ntp1357
Rp1358
(dp1359
g6
Nsg8
I00
sg9
Nsg15
NsbsVg-friend
p1360
g0
(g1
g2
Ntp1361
Rp1362
(dp1363
g6
Nsg8
I00
sg9
Nsg15
NsbsVscotch
p1364
g0
(g1
g2
Ntp1365
Rp1366
(dp1367
g6
Nsg8
I00
sg9
Nsg15
NsbsVstrong.
p1368
g0
(g1
g2
Ntp1369
Rp1370
(dp1371
g6
Nsg8
I00
sg9
Nsg15
NsbsVsaying
p1372
g0
(g1
g2
Ntp1373
Rp1374
(dp1375
g6
Nsg8
I00
sg9
Nsg15
NsbsVrandom
p1376
g0
(g1
g2
Ntp1377
Rp1378
(dp1379
g6
Nsg8
I00
sg9
Nsg15
NsbsVParadise
p1380
g0
(g1
g2
Ntp1381
Rp1382
(dp1383
g6
Nsg8
I00
sg9
Nsg15
NsbsVnephew
p1384
g0
(g1
g2
Ntp1385
Rp1386
(dp1387
g6
Nsg8
I00
sg9
Nsg15
NsbsVjudges
p1388
g0
(g1
g2
Ntp1389
Rp1390
(dp1391
g6
Nsg8
I00
sg9
Nsg15
NsbsVjust
p1392
g0
(g1
g2
Ntp1393
Rp1394
(dp1395
g6
Nsg8
I00
sg9
Nsg15
NsbsVBig
p1396
g0
(g1
g2
Ntp1397
Rp1398
(dp1399
g6
Nsg8
I00
sg9
Nsg15
NsbsVfolded
p1400
g0
(g1
g2
Ntp1401
Rp1402
(dp1403
g6
Nsg8
I00
sg9
Nsg15
NsbsVbust
p1404
g0
(g1
g2
Ntp1405
Rp1406
(dp1407
g6
Nsg8
I00
sg9
Nsg15
NsbsVstabbing
p1408
g0
(g1
g2
Ntp1409
Rp1410
(dp1411
g6
Nsg8
I00
sg9
Nsg15
NsbsVpursuing
p1412
g0
(g1
g2
Ntp1413
Rp1414
(dp1415
g6
Nsg8
I00
sg9
Nsg15
NsbsVpopulation
p1416
g0
(g1
g2
Ntp1417
Rp1418
(dp1419
g6
Nsg8
I00
sg9
Nsg15
NsbsVpersonality
p1420
g0
(g1
g2
Ntp1421
Rp1422
(dp1423
g6
Nsg8
I00
sg9
Nsg15
NsbsVdo
p1424
g0
(g1
g2
Ntp1425
Rp1426
(dp1427
g6
Nsg8
I00
sg9
Nsg15
NsbsV10
p1428
g0
(g1
g2
Ntp1429
Rp1430
(dp1431
g6
Nsg8
I00
sg9
Nsg15
NsbsVstammered
p1432
g0
(g1
g2
Ntp1433
Rp1434
(dp1435
g6
Nsg8
I00
sg9
Nsg15
NsbsVstop
p1436
g0
(g1
g2
Ntp1437
Rp1438
(dp1439
g6
Nsg8
I00
sg9
Nsg15
NsbsVwedding
p1440
g0
(g1
g2
Ntp1441
Rp1442
(dp1443
g6
Nsg8
I00
sg9
Nsg15
NsbsVknocks
p1444
g0
(g1
g2
Ntp1445
Rp1446
(dp1447
g6
Nsg8
I00
sg9
Nsg15
NsbsVbar
p1448
g0
(g1
g2
Ntp1449
Rp1450
(dp1451
g6
Nsg8
I00
sg9
Nsg15
Nsbsg413
g0
(g1
g2
Ntp1452
Rp1453
(dp1454
g6
Nsg8
I00
sg9
Nsg15
NsbsVbag
p1455
g0
(g1
g2
Ntp1456
Rp1457
(dp1458
g6
Nsg8
I00
sg9
Nsg15
NsbsVbad
p1459
g0
(g1
g2
Ntp1460
Rp1461
(dp1462
g6
Nsg8
I00
sg9
Nsg15
NsbsVarchitecture
p1463
g0
(g1
g2
Ntp1464
Rp1465
(dp1466
g6
Nsg8
I00
sg9
Nsg15
NsbsVsteal
p1467
g0
(g1
g2
Ntp1468
Rp1469
(dp1470
g6
Nsg8
I00
sg9
Nsg15
NsbsVears
p1471
g0
(g1
g2
Ntp1472
Rp1473
(dp1474
g6
Nsg8
I00
sg9
Nsg15
NsbsVMarshall.
p1475
g0
(g1
g2
Ntp1476
Rp1477
(dp1478
g6
Nsg8
I00
sg9
Nsg15
NsbsVdecides
p1479
g0
(g1
g2
Ntp1480
Rp1481
(dp1482
g6
Nsg8
I00
sg9
Nsg15
NsbsVfair
p1483
g0
(g1
g2
Ntp1484
Rp1485
(dp1486
g6
Nsg8
I00
sg9
Nsg15
NsbsVInternet
p1487
g0
(g1
g2
Ntp1488
Rp1489
(dp1490
g6
Nsg8
I00
sg9
Nsg15
NsbsVAnderson
p1491
g0
(g1
g2
Ntp1492
Rp1493
(dp1494
g6
Nsg8
I00
sg9
Nsg15
NsbsVShort
p1495
g0
(g1
g2
Ntp1496
Rp1497
(dp1498
g6
Nsg8
I00
sg9
Nsg15
NsbsVbest
p1499
g0
(g1
g2
Ntp1500
Rp1501
(dp1502
g6
Nsg8
I00
sg9
Nsg15
NsbsVLusty
p1503
g0
(g1
g2
Ntp1504
Rp1505
(dp1506
g6
Nsg8
I00
sg9
Nsg15
NsbsVsaid
p1507
g0
(g1
g2
Ntp1508
Rp1509
(dp1510
g6
Nsg8
I00
sg9
Nsg15
NsbsVcapacity
p1511
g0
(g1
g2
Ntp1512
Rp1513
(dp1514
g6
Nsg8
I00
sg9
Nsg15
NsbsVgame.
p1515
g0
(g1
g2
Ntp1516
Rp1517
(dp1518
g6
Nsg8
I00
sg9
Nsg15
NsbsVaway
p1519
g0
(g1
g2
Ntp1520
Rp1521
(dp1522
g6
Nsg8
I00
sg9
Nsg15
NsbsVrings
p1523
g0
(g1
g2
Ntp1524
Rp1525
(dp1526
g6
Nsg8
I00
sg9
Nsg15
NsbsVTook
p1527
g0
(g1
g2
Ntp1528
Rp1529
(dp1530
g6
Nsg8
I00
sg9
Nsg15
NsbsVscore
p1531
g0
(g1
g2
Ntp1532
Rp1533
(dp1534
g6
Nsg8
I00
sg9
Nsg15
NsbsVwe
p1535
g0
(g1
g2
Ntp1536
Rp1537
(dp1538
g6
Nsg8
I00
sg9
Nsg15
NsbsVmen
p1539
g0
(g1
g2
Ntp1540
Rp1541
(dp1542
g6
Nsg8
I00
sg9
Nsg15
NsbsVwo
p1543
g0
(g1
g2
Ntp1544
Rp1545
(dp1546
g6
Nsg8
I00
sg9
Nsg15
NsbsVlotion
p1547
g0
(g1
g2
Ntp1548
Rp1549
(dp1550
g6
Nsg8
I00
sg9
Nsg15
NsbsVBronx
p1551
g0
(g1
g2
Ntp1552
Rp1553
(dp1554
g6
Nsg8
I00
sg9
Nsg15
NsbsVpicking
p1555
g0
(g1
g2
Ntp1556
Rp1557
(dp1558
g6
Nsg8
I00
sg9
Nsg15
NsbsVsuggested
p1559
g0
(g1
g2
Ntp1560
Rp1561
(dp1562
g6
Nsg8
I00
sg9
Nsg15
NsbsVdrywall
p1563
g0
(g1
g2
Ntp1564
Rp1565
(dp1566
g6
Nsg8
I00
sg9
Nsg15
NsbsVred-blooded
p1567
g0
(g1
g2
Ntp1568
Rp1569
(dp1570
g6
Nsg8
I00
sg9
Nsg15
NsbsVring.
p1571
g0
(g1
g2
Ntp1572
Rp1573
(dp1574
g6
Nsg8
I00
sg9
Nsg15
NsbsVDoug
p1575
g0
(g1
g2
Ntp1576
Rp1577
(dp1578
g6
Nsg8
I00
sg9
Nsg15
NsbsVasked
p1579
g0
(g1
g2
Ntp1580
Rp1581
(dp1582
g6
Nsg8
I00
sg9
Nsg15
NsbsVCassie
p1583
g0
(g1
g2
Ntp1584
Rp1585
(dp1586
g6
Nsg8
I00
sg9
Nsg15
NsbsVcon
p1587
g0
(g1
g2
Ntp1588
Rp1589
(dp1590
g6
Nsg8
I00
sg9
Nsg15
NsbsVand
p1591
g0
(g1
g2
Ntp1592
Rp1593
(dp1594
g6
S'prev-word'
p1595
sg8
I00
sg9
(dp1596
Vand
p1597
g0
(g1
g2
Ntp1598
Rp1599
(dp1600
g6
Nsg8
I00
sg9
Nsg15
NsbsVright
p1601
g0
(g1
g2
Ntp1602
Rp1603
(dp1604
g6
Nsg8
I00
sg9
Nsg15
NsbsVchain
p1605
g0
(g1
g2
Ntp1606
Rp1607
(dp1608
g6
Nsg8
I00
sg9
Nsg15
NsbsVpeople
p1609
g0
(g1
g2
Ntp1610
Rp1611
(dp1612
g6
Nsg8
I00
sg9
Nsg15
NsbsVbeing
p1613
g0
(g1
g2
Ntp1614
Rp1615
(dp1616
g6
Nsg8
I00
sg9
Nsg15
NsbsVvisit
p1617
g0
(g1
g2
Ntp1618
Rp1619
(dp1620
g6
Nsg8
I00
sg9
Nsg15
NsbsVis
p1621
g0
(g1
g2
Ntp1622
Rp1623
(dp1624
g6
Nsg8
I00
sg9
Nsg15
NsbsVgrabs
p1625
g0
(g1
g2
Ntp1626
Rp1627
(dp1628
g6
Nsg8
I00
sg9
Nsg15
NsbsVit
p1629
g0
(g1
g2
Ntp1630
Rp1631
(dp1632
g6
Nsg8
I00
sg9
Nsg15
NsbsValive
p1633
g0
(g1
g2
Ntp1634
Rp1635
(dp1636
g6
Nsg8
I00
sg9
Nsg15
NsbsVTo
p1637
g0
(g1
g2
Ntp1638
Rp1639
(dp1640
g6
Nsg8
I00
sg9
Nsg15
NsbsVthrough
p1641
g0
(g1
g2
Ntp1642
Rp1643
(dp1644
g6
Nsg8
I00
sg9
Nsg15
NsbsVare
p1645
g0
(g1
g2
Ntp1646
Rp1647
(dp1648
g6
Nsg8
I00
sg9
Nsg15
NsbsVleft
p1649
g0
(g1
g2
Ntp1650
Rp1651
(dp1652
g6
Nsg8
I00
sg9
Nsg15
NsbsVyour
p1653
g0
(g1
g2
Ntp1654
Rp1655
(dp1656
g6
Nsg8
I00
sg9
Nsg15
NsbsVmachine
p1657
g0
(g1
g2
Ntp1658
Rp1659
(dp1660
g6
Nsg8
I00
sg9
Nsg15
NsbsVher
p1661
g0
(g1
g2
Ntp1662
Rp1663
(dp1664
g6
Nsg8
I00
sg9
Nsg15
NsbsVto
p1665
g0
(g1
g2
Ntp1666
Rp1667
(dp1668
g6
Nsg8
I00
sg9
Nsg15
NsbsV(
p1669
g0
(g1
g2
Ntp1670
Rp1671
(dp1672
g6
Nsg8
I00
sg9
Nsg15
NsbsVmake
p1673
g0
(g1
g2
Ntp1674
Rp1675
(dp1676
g6
Nsg8
I00
sg9
Nsg15
NsbsVwhen
p1677
g0
(g1
g2
Ntp1678
Rp1679
(dp1680
g6
Nsg8
I00
sg9
Nsg15
NsbsV,
p1681
g0
(g1
g2
Ntp1682
Rp1683
(dp1684
g6
Nsg8
I00
sg9
Nsg15
NsbsVlong
p1685
g0
(g1
g2
Ntp1686
Rp1687
(dp1688
g6
Nsg8
I00
sg9
Nsg15
NsbsVday
p1689
g0
(g1
g2
Ntp1690
Rp1691
(dp1692
g6
Nsg8
I00
sg9
Nsg15
NsbsVaccess
p1693
g0
(g1
g2
Ntp1694
Rp1695
(dp1696
g6
Nsg8
I00
sg9
Nsg15
NsbsVtheir
p1697
g0
(g1
g2
Ntp1698
Rp1699
(dp1700
g6
Nsg8
I00
sg9
Nsg15
NsbsV3
p1701
g0
(g1
g2
Ntp1702
Rp1703
(dp1704
g6
Nsg8
I00
sg9
Nsg15
NsbsVgoing
p1705
g0
(g1
g2
Ntp1706
Rp1707
(dp1708
g6
Nsg8
I00
sg9
Nsg15
NsbsVgoes
p1709
g0
(g1
g2
Ntp1710
Rp1711
(dp1712
g6
Nsg8
I00
sg9
Nsg15
NsbsVGrandma
p1713
g0
(g1
g2
Ntp1714
Rp1715
(dp1716
g6
Nsg8
I00
sg9
Nsg15
Nsbsg1352
g0
(g1
g2
Ntp1717
Rp1718
(dp1719
g6
Nsg8
I00
sg9
Nsg15
Nsbsg1308
g0
(g1
g2
Ntp1720
Rp1721
(dp1722
g6
Nsg8
I00
sg9
Nsg15
NsbsV:
p1723
g0
(g1
g2
Ntp1724
Rp1725
(dp1726
g6
Nsg8
I00
sg9
Nsg15
NsbsVmeeting
p1727
g0
(g1
g2
Ntp1728
Rp1729
(dp1730
g6
Nsg8
I00
sg9
Nsg15
Nsbsg533
g0
(g1
g2
Ntp1731
Rp1732
(dp1733
g6
Nsg8
I00
sg9
Nsg15
NsbsVmore
p1734
g0
(g1
g2
Ntp1735
Rp1736
(dp1737
g6
Nsg8
I00
sg9
Nsg15
NsbsVBoy
p1738
g0
(g1
g2
Ntp1739
Rp1740
(dp1741
g6
Nsg8
I00
sg9
Nsg15
NsbsVthem
p1742
g0
(g1
g2
Ntp1743
Rp1744
(dp1745
g6
Nsg8
I00
sg9
Nsg15
NsbsVwoman
p1746
g0
(g1
g2
Ntp1747
Rp1748
(dp1749
g6
Nsg8
I00
sg9
Nsg15
NsbsVGetting
p1750
g0
(g1
g2
Ntp1751
Rp1752
(dp1753
g6
Nsg8
I00
sg9
Nsg15
NsbsVI
p1754
g0
(g1
g2
Ntp1755
Rp1756
(dp1757
g6
Nsg8
I00
sg9
Nsg15
NsbsVbetween
p1758
g0
(g1
g2
Ntp1759
Rp1760
(dp1761
g6
Nsg8
I00
sg9
Nsg15
NsbsVhand
p1762
g0
(g1
g2
Ntp1763
Rp1764
(dp1765
g6
Nsg8
I00
sg9
Nsg15
NsbsVwere
p1766
g0
(g1
g2
Ntp1767
Rp1768
(dp1769
g6
Nsg8
I00
sg9
Nsg15
NsbsVSo
p1770
g0
(g1
g2
Ntp1771
Rp1772
(dp1773
g6
Nsg8
I00
sg9
Nsg15
NsbsVknow
p1774
g0
(g1
g2
Ntp1775
Rp1776
(dp1777
g6
Nsg8
I00
sg9
Nsg15
Nsbsg192
g0
(g1
g2
Ntp1778
Rp1779
(dp1780
g6
Nsg8
I00
sg9
Nsg15
NsbsVnot
p1781
g0
(g1
g2
Ntp1782
Rp1783
(dp1784
g6
Nsg8
I00
sg9
Nsg15
NsbsVbe
p1785
g0
(g1
g2
Ntp1786
Rp1787
(dp1788
g6
Nsg8
I00
sg9
Nsg15
Nsbsg204
g0
(g1
g2
Ntp1789
Rp1790
(dp1791
g6
Nsg8
I00
sg9
Nsg15
NsbsVwith
p1792
g0
(g1
g2
Ntp1793
Rp1794
(dp1795
g6
Nsg8
I00
sg9
Nsg15
NsbsVby
p1796
g0
(g1
g2
Ntp1797
Rp1798
(dp1799
g6
Nsg8
I00
sg9
Nsg15
NsbsVbank
p1800
g0
(g1
g2
Ntp1801
Rp1802
(dp1803
g6
Nsg8
I00
sg9
Nsg15
NsbsVme
p1804
g0
(g1
g2
Ntp1805
Rp1806
(dp1807
g6
Nsg8
I00
sg9
Nsg15
NsbsVon
p1808
g0
(g1
g2
Ntp1809
Rp1810
(dp1811
g6
Nsg8
I00
sg9
Nsg15
NsbsVgetting
p1812
g0
(g1
g2
Ntp1813
Rp1814
(dp1815
g6
Nsg8
I00
sg9
Nsg15
NsbsVwas
p1816
g0
(g1
g2
Ntp1817
Rp1818
(dp1819
g6
Nsg8
I00
sg9
Nsg15
NsbsVMarshall
p1820
g0
(g1
g2
Ntp1821
Rp1822
(dp1823
g6
Nsg8
I00
sg9
Nsg15
NsbsVlist
p1824
g0
(g1
g2
Ntp1825
Rp1826
(dp1827
g6
Nsg8
I00
sg9
Nsg15
NsbsVso
p1828
g0
(g1
g2
Ntp1829
Rp1830
(dp1831
g6
Nsg8
I00
sg9
Nsg15
NsbsS'<START>'
p1832
g0
(g1
g2
Ntp1833
Rp1834
(dp1835
g6
Nsg8
I01
sg9
Nsg15
Nsbsg973
g0
(g1
g2
Ntp1836
Rp1837
(dp1838
g6
Nsg8
I00
sg9
Nsg15
NsbsVteam
p1839
g0
(g1
g2
Ntp1840
Rp1841
(dp1842
g6
Nsg8
I00
sg9
Nsg15
NsbsVof
p1843
g0
(g1
g2
Ntp1844
Rp1845
(dp1846
g6
Nsg8
I00
sg9
Nsg15
NsbsVthe
p1847
g0
(g1
g2
Ntp1848
Rp1849
(dp1850
g6
Nsg8
I00
sg9
Nsg15
NsbsVquarter
p1851
g0
(g1
g2
Ntp1852
Rp1853
(dp1854
g6
Nsg8
I00
sg9
Nsg15
NsbsVmy
p1855
g0
(g1
g2
Ntp1856
Rp1857
(dp1858
g6
Nsg8
I00
sg9
Nsg15
NsbsVor
p1859
g0
(g1
g2
Ntp1860
Rp1861
(dp1862
g6
Nsg8
I00
sg9
Nsg15
NsbsVat
p1863
g0
(g1
g2
Ntp1864
Rp1865
(dp1866
g6
Nsg8
I00
sg9
Nsg15
Nsbssg15
NsbsVApartment
p1867
g0
(g1
g2
Ntp1868
Rp1869
(dp1870
g6
Nsg8
I00
sg9
Nsg15
NsbsVtough
p1871
g0
(g1
g2
Ntp1872
Rp1873
(dp1874
g6
Nsg8
I00
sg9
Nsg15
Nsbsg489
g0
(g1
g2
Ntp1875
Rp1876
(dp1877
g6
Nsg8
I00
sg9
Nsg15
NsbsVcharacter
p1878
g0
(g1
g2
Ntp1879
Rp1880
(dp1881
g6
Nsg8
I00
sg9
Nsg15
NsbsVTVs
p1882
g0
(g1
g2
Ntp1883
Rp1884
(dp1885
g6
Nsg8
I00
sg9
Nsg15
NsbsVLeonard
p1886
g0
(g1
g2
Ntp1887
Rp1888
(dp1889
g6
Nsg8
I00
sg9
Nsg15
NsbsVanchor.
p1890
g0
(g1
g2
Ntp1891
Rp1892
(dp1893
g6
Nsg8
I00
sg9
Nsg15
NsbsVSorry
p1894
g0
(g1
g2
Ntp1895
Rp1896
(dp1897
g6
Nsg8
I00
sg9
Nsg15
NsbsVspeak
p1898
g0
(g1
g2
Ntp1899
Rp1900
(dp1901
g6
Nsg8
I00
sg9
Nsg15
NsbsVbathroom
p1902
g0
(g1
g2
Ntp1903
Rp1904
(dp1905
g6
Nsg8
I00
sg9
Nsg15
NsbsVClarence
p1906
g0
(g1
g2
Ntp1907
Rp1908
(dp1909
g6
Nsg8
I00
sg9
Nsg15
NsbsVSouthern
p1910
g0
(g1
g2
Ntp1911
Rp1912
(dp1913
g6
Nsg8
I00
sg9
Nsg15
NsbsVthree
p1914
g0
(g1
g2
Ntp1915
Rp1916
(dp1917
g6
Nsg8
I00
sg9
Nsg15
NsbsVbeen
p1918
g0
(g1
g2
Ntp1919
Rp1920
(dp1921
g6
Nsg8
I00
sg9
Nsg15
NsbsV.
p1922
g0
(g1
g2
Ntp1923
Rp1924
(dp1925
g6
Nsg8
I00
sg9
Nsg15
NsbsVbeer
p1926
g0
(g1
g2
Ntp1927
Rp1928
(dp1929
g6
Nsg8
I00
sg9
Nsg15
NsbsVmuch
p1930
g0
(g1
g2
Ntp1931
Rp1932
(dp1933
g6
Nsg8
I00
sg9
Nsg15
NsbsVbasic
p1934
g0
(g1
g2
Ntp1935
Rp1936
(dp1937
g6
Nsg8
I00
sg9
Nsg15
NsbsVlovely
p1938
g0
(g1
g2
Ntp1939
Rp1940
(dp1941
g6
Nsg8
I00
sg9
Nsg15
NsbsVlife
p1942
g0
(g1
g2
Ntp1943
Rp1944
(dp1945
g6
Nsg8
I00
sg9
Nsg15
NsbsVneeded.
p1946
g0
(g1
g2
Ntp1947
Rp1948
(dp1949
g6
Nsg8
I00
sg9
Nsg15
NsbsVchild
p1950
g0
(g1
g2
Ntp1951
Rp1952
(dp1953
g6
Nsg8
I00
sg9
Nsg15
NsbsVworked
p1954
g0
(g1
g2
Ntp1955
Rp1956
(dp1957
g6
Nsg8
I00
sg9
Nsg15
NsbsVgracias
p1958
g0
(g1
g2
Ntp1959
Rp1960
(dp1961
g6
Nsg8
I00
sg9
Nsg15
NsbsVugly
p1962
g0
(g1
g2
Ntp1963
Rp1964
(dp1965
g6
Nsg8
I00
sg9
Nsg15
NsbsVchanged
p1966
g0
(g1
g2
Ntp1967
Rp1968
(dp1969
g6
Nsg8
I00
sg9
Nsg15
NsbsVplayed
p1970
g0
(g1
g2
Ntp1971
Rp1972
(dp1973
g6
Nsg8
I00
sg9
Nsg15
NsbsVis
p1974
g0
(g1
g2
Ntp1975
Rp1976
(dp1977
g6
Nsg8
I00
sg9
Nsg15
NsbsVit
p1978
g0
(g1
g2
Ntp1979
Rp1980
(dp1981
g6
Nsg8
I00
sg9
Nsg15
NsbsV'man
p1982
g0
(g1
g2
Ntp1983
Rp1984
(dp1985
g6
Nsg8
I00
sg9
Nsg15
NsbsVtissue
p1986
g0
(g1
g2
Ntp1987
Rp1988
(dp1989
g6
Nsg8
I00
sg9
Nsg15
NsbsVin
p1990
g0
(g1
g2
Ntp1991
Rp1992
(dp1993
g6
Nsg8
I00
sg9
Nsg15
NsbsVOk
p1994
g0
(g1
g2
Ntp1995
Rp1996
(dp1997
g6
Nsg8
I00
sg9
Nsg15
NsbsVTell
p1998
g0
(g1
g2
Ntp1999
Rp2000
(dp2001
g6
Nsg8
I00
sg9
Nsg15
NsbsVif
p2002
g0
(g1
g2
Ntp2003
Rp2004
(dp2005
g6
Nsg8
I00
sg9
Nsg15
NsbsVthings
p2006
g0
(g1
g2
Ntp2007
Rp2008
(dp2009
g6
Nsg8
I00
sg9
Nsg15
Nsbsg1673
g0
(g1
g2
Ntp2010
Rp2011
(dp2012
g6
Nsg8
I00
sg9
Nsg15
NsbsVStop
p2013
g0
(g1
g2
Ntp2014
Rp2015
(dp2016
g6
Nsg8
I00
sg9
Nsg15
NsbsVsmoke.
p2017
g0
(g1
g2
Ntp2018
Rp2019
(dp2020
g6
Nsg8
I00
sg9
Nsg15
NsbsVsplit
p2021
g0
(g1
g2
Ntp2022
Rp2023
(dp2024
g6
Nsg8
I00
sg9
Nsg15
NsbsV80s
p2025
g0
(g1
g2
Ntp2026
Rp2027
(dp2028
g6
Nsg8
I00
sg9
Nsg15
NsbsVworry.
p2029
g0
(g1
g2
Ntp2030
Rp2031
(dp2032
g6
Nsg8
I00
sg9
Nsg15
NsbsVshoveling
p2033
g0
(g1
g2
Ntp2034
Rp2035
(dp2036
g6
Nsg8
I00
sg9
Nsg15
NsbsVcouple
p2037
g0
(g1
g2
Ntp2038
Rp2039
(dp2040
g6
Nsg8
I00
sg9
Nsg15
NsbsVvibrates
p2041
g0
(g1
g2
Ntp2042
Rp2043
(dp2044
g6
Nsg8
I00
sg9
Nsg15
NsbsVhang
p2045
g0
(g1
g2
Ntp2046
Rp2047
(dp2048
g6
Nsg8
I00
sg9
Nsg15
NsbsVhand
p2049
g0
(g1
g2
Ntp2050
Rp2051
(dp2052
g6
Nsg8
I00
sg9
Nsg15
NsbsVMen,
p2053
g0
(g1
g2
Ntp2054
Rp2055
(dp2056
g6
Nsg8
I00
sg9
Nsg15
NsbsVafraid
p2057
g0
(g1
g2
Ntp2058
Rp2059
(dp2060
g6
Nsg8
I00
sg9
Nsg15
NsbsVjealous
p2061
g0
(g1
g2
Ntp2062
Rp2063
(dp2064
g6
Nsg8
I00
sg9
Nsg15
NsbsVCanada.
p2065
g0
(g1
g2
Ntp2066
Rp2067
(dp2068
g6
Nsg8
I00
sg9
Nsg15
NsbsVkid
p2069
g0
(g1
g2
Ntp2070
Rp2071
(dp2072
g6
Nsg8
I00
sg9
Nsg15
NsbsVsmoker
p2073
g0
(g1
g2
Ntp2074
Rp2075
(dp2076
g6
Nsg8
I00
sg9
Nsg15
NsbsVThought-outness
p2077
g0
(g1
g2
Ntp2078
Rp2079
(dp2080
g6
Nsg8
I00
sg9
Nsg15
NsbsVcharity
p2081
g0
(g1
g2
Ntp2082
Rp2083
(dp2084
g6
Nsg8
I00
sg9
Nsg15
NsbsVthing.
p2085
g0
(g1
g2
Ntp2086
Rp2087
(dp2088
g6
Nsg8
I00
sg9
Nsg15
NsbsVqualities
p2089
g0
(g1
g2
Ntp2090
Rp2091
(dp2092
g6
Nsg8
I00
sg9
Nsg15
NsbsVthe
p2093
g0
(g1
g2
Ntp2094
Rp2095
(dp2096
g6
Nsg8
I00
sg9
Nsg15
NsbsVcorporate
p2097
g0
(g1
g2
Ntp2098
Rp2099
(dp2100
g6
Nsg8
I00
sg9
Nsg15
Nsbsg1649
g0
(g1
g2
Ntp2101
Rp2102
(dp2103
g6
Nsg8
I00
sg9
Nsg15
NsbsVSarah
p2104
g0
(g1
g2
Ntp2105
Rp2106
(dp2107
g6
Nsg8
I00
sg9
Nsg15
NsbsVMemorial
p2108
g0
(g1
g2
Ntp2109
Rp2110
(dp2111
g6
Nsg8
I00
sg9
Nsg15
NsbsVThank
p2112
g0
(g1
g2
Ntp2113
Rp2114
(dp2115
g6
Nsg8
I00
sg9
Nsg15
NsbsVsleeps
p2116
g0
(g1
g2
Ntp2117
Rp2118
(dp2119
g6
Nsg8
I00
sg9
Nsg15
NsbsVsentence
p2120
g0
(g1
g2
Ntp2121
Rp2122
(dp2123
g6
Nsg8
I00
sg9
Nsg15
NsbsVphoto
p2124
g0
(g1
g2
Ntp2125
Rp2126
(dp2127
g6
Nsg8
I00
sg9
Nsg15
NsbsVdistribute
p2128
g0
(g1
g2
Ntp2129
Rp2130
(dp2131
g6
Nsg8
I00
sg9
Nsg15
NsbsVDowntown.
p2132
g0
(g1
g2
Ntp2133
Rp2134
(dp2135
g6
Nsg8
I00
sg9
Nsg15
NsbsVdisguise
p2136
g0
(g1
g2
Ntp2137
Rp2138
(dp2139
g6
Nsg8
I00
sg9
Nsg15
NsbsVperfect.
p2140
g0
(g1
g2
Ntp2141
Rp2142
(dp2143
g6
Nsg8
I00
sg9
Nsg15
NsbsVyes
p2144
g0
(g1
g2
Ntp2145
Rp2146
(dp2147
g6
Nsg8
I00
sg9
Nsg15
NsbsVrotates
p2148
g0
(g1
g2
Ntp2149
Rp2150
(dp2151
g6
Nsg8
I00
sg9
Nsg15
NsbsVyet
p2152
g0
(g1
g2
Ntp2153
Rp2154
(dp2155
g6
Nsg8
I00
sg9
Nsg15
NsbsVHappy
p2156
g0
(g1
g2
Ntp2157
Rp2158
(dp2159
g6
Nsg8
I00
sg9
Nsg15
NsbsVenters
p2160
g0
(g1
g2
Ntp2161
Rp2162
(dp2163
g6
Nsg8
I00
sg9
Nsg15
NsbsVhad
p2164
g0
(g1
g2
Ntp2165
Rp2166
(dp2167
g6
Nsg8
I00
sg9
Nsg15
NsbsVtired.
p2168
g0
(g1
g2
Ntp2169
Rp2170
(dp2171
g6
Nsg8
I00
sg9
Nsg15
NsbsVwings
p2172
g0
(g1
g2
Ntp2173
Rp2174
(dp2175
g6
Nsg8
I00
sg9
Nsg15
NsbsVteenager
p2176
g0
(g1
g2
Ntp2177
Rp2178
(dp2179
g6
Nsg8
I00
sg9
Nsg15
NsbsVeasy
p2180
g0
(g1
g2
Ntp2181
Rp2182
(dp2183
g6
Nsg8
I00
sg9
Nsg15
NsbsVNews
p2184
g0
(g1
g2
Ntp2185
Rp2186
(dp2187
g6
Nsg8
I00
sg9
Nsg15
NsbsVsave
p2188
g0
(g1
g2
Ntp2189
Rp2190
(dp2191
g6
Nsg8
I00
sg9
Nsg15
NsbsVgave
p2192
g0
(g1
g2
Ntp2193
Rp2194
(dp2195
g6
Nsg8
I00
sg9
Nsg15
NsbsVfact.
p2196
g0
(g1
g2
Ntp2197
Rp2198
(dp2199
g6
Nsg8
I00
sg9
Nsg15
NsbsVbastardo
p2200
g0
(g1
g2
Ntp2201
Rp2202
(dp2203
g6
Nsg8
I00
sg9
Nsg15
NsbsVunique
p2204
g0
(g1
g2
Ntp2205
Rp2206
(dp2207
g6
Nsg8
I00
sg9
Nsg15
NsbsVdreams
p2208
g0
(g1
g2
Ntp2209
Rp2210
(dp2211
g6
Nsg8
I00
sg9
Nsg15
NsbsVgift
p2212
g0
(g1
g2
Ntp2213
Rp2214
(dp2215
g6
Nsg8
I00
sg9
Nsg15
NsbsVAre
p2216
g0
(g1
g2
Ntp2217
Rp2218
(dp2219
g6
Nsg8
I00
sg9
Nsg15
NsbsVnight
p2220
g0
(g1
g2
Ntp2221
Rp2222
(dp2223
g6
Nsg8
I00
sg9
Nsg15
NsbsVRSVP
p2224
g0
(g1
g2
Ntp2225
Rp2226
(dp2227
g6
Nsg8
I00
sg9
Nsg15
NsbsVantique
p2228
g0
(g1
g2
Ntp2229
Rp2230
(dp2231
g6
Nsg8
I00
sg9
Nsg15
NsbsVNow.
p2232
g0
(g1
g2
Ntp2233
Rp2234
(dp2235
g6
Nsg8
I00
sg9
Nsg15
NsbsVright
p2236
g0
(g1
g2
Ntp2237
Rp2238
(dp2239
g6
Nsg8
I00
sg9
Nsg15
NsbsVold
p2240
g0
(g1
g2
Ntp2241
Rp2242
(dp2243
g6
Nsg8
I00
sg9
Nsg15
NsbsVpeople
p2244
g0
(g1
g2
Ntp2245
Rp2246
(dp2247
g6
Nsg8
I00
sg9
Nsg15
NsbsVdead
p2248
g0
(g1
g2
Ntp2249
Rp2250
(dp2251
g6
Nsg8
I00
sg9
Nsg15
NsbsVcritique
p2252
g0
(g1
g2
Ntp2253
Rp2254
(dp2255
g6
Nsg8
I00
sg9
Nsg15
NsbsVsister
p2256
g0
(g1
g2
Ntp2257
Rp2258
(dp2259
g6
Nsg8
I00
sg9
Nsg15
NsbsVgasps
p2260
g0
(g1
g2
Ntp2261
Rp2262
(dp2263
g6
Nsg8
I00
sg9
Nsg15
NsbsVtracked
p2264
g0
(g1
g2
Ntp2265
Rp2266
(dp2267
g6
Nsg8
I00
sg9
Nsg15
NsbsVfor
p2268
g0
(g1
g2
Ntp2269
Rp2270
(dp2271
g6
Nsg8
I00
sg9
Nsg15
NsbsVice
p2272
g0
(g1
g2
Ntp2273
Rp2274
(dp2275
g6
Nsg8
I00
sg9
Nsg15
NsbsVpolluted
p2276
g0
(g1
g2
Ntp2277
Rp2278
(dp2279
g6
Nsg8
I00
sg9
Nsg15
NsbsVeverything
p2280
g0
(g1
g2
Ntp2281
Rp2282
(dp2283
g6
Nsg8
I00
sg9
Nsg15
NsbsVHi
p2284
g0
(g1
g2
Ntp2285
Rp2286
(dp2287
g6
Nsg8
I00
sg9
Nsg15
NsbsVLet
p2288
g0
(g1
g2
Ntp2289
Rp2290
(dp2291
g6
Nsg8
I00
sg9
Nsg15
NsbsVRepeatedly
p2292
g0
(g1
g2
Ntp2293
Rp2294
(dp2295
g6
Nsg8
I00
sg9
Nsg15
NsbsVdenied
p2296
g0
(g1
g2
Ntp2297
Rp2298
(dp2299
g6
Nsg8
I00
sg9
Nsg15
NsbsVintolerant
p2300
g0
(g1
g2
Ntp2301
Rp2302
(dp2303
g6
Nsg8
I00
sg9
Nsg15
NsbsVdrink
p2304
g0
(g1
g2
Ntp2305
Rp2306
(dp2307
g6
Nsg8
I00
sg9
Nsg15
NsbsVHe
p2308
g0
(g1
g2
Ntp2309
Rp2310
(dp2311
g6
Nsg8
I00
sg9
Nsg15
NsbsVcorn
p2312
g0
(g1
g2
Ntp2313
Rp2314
(dp2315
g6
Nsg8
I00
sg9
Nsg15
NsbsVburn
p2316
g0
(g1
g2
Ntp2317
Rp2318
(dp2319
g6
Nsg8
I00
sg9
Nsg15
NsbsVNicholson
p2320
g0
(g1
g2
Ntp2321
Rp2322
(dp2323
g6
Nsg8
I00
sg9
Nsg15
NsbsVpeed
p2324
g0
(g1
g2
Ntp2325
Rp2326
(dp2327
g6
Nsg8
I00
sg9
Nsg15
NsbsVclub.
p2328
g0
(g1
g2
Ntp2329
Rp2330
(dp2331
g6
Nsg8
I00
sg9
Nsg15
NsbsVlamps
p2332
g0
(g1
g2
Ntp2333
Rp2334
(dp2335
g6
Nsg8
I00
sg9
Nsg15
NsbsVengaged
p2336
g0
(g1
g2
Ntp2337
Rp2338
(dp2339
g6
Nsg8
I00
sg9
Nsg15
NsbsVsuper
p2340
g0
(g1
g2
Ntp2341
Rp2342
(dp2343
g6
Nsg8
I00
sg9
Nsg15
NsbsVStrickland
p2344
g0
(g1
g2
Ntp2345
Rp2346
(dp2347
g6
Nsg8
I00
sg9
Nsg15
NsbsVcowboy
p2348
g0
(g1
g2
Ntp2349
Rp2350
(dp2351
g6
Nsg8
I00
sg9
Nsg15
NsbsVmonths
p2352
g0
(g1
g2
Ntp2353
Rp2354
(dp2355
g6
Nsg8
I00
sg9
Nsg15
NsbsVdinner
p2356
g0
(g1
g2
Ntp2357
Rp2358
(dp2359
g6
Nsg8
I00
sg9
Nsg15
NsbsVShake
p2360
g0
(g1
g2
Ntp2361
Rp2362
(dp2363
g6
Nsg8
I00
sg9
Nsg15
NsbsVDad.
p2364
g0
(g1
g2
Ntp2365
Rp2366
(dp2367
g6
Nsg8
I00
sg9
Nsg15
NsbsVdials
p2368
g0
(g1
g2
Ntp2369
Rp2370
(dp2371
g6
Nsg8
I00
sg9
Nsg15
NsbsVson
p2372
g0
(g1
g2
Ntp2373
Rp2374
(dp2375
g6
Nsg8
I00
sg9
Nsg15
NsbsVdown
p2376
g0
(g1
g2
Ntp2377
Rp2378
(dp2379
g6
Nsg8
I00
sg9
Nsg15
NsbsVlies
p2380
g0
(g1
g2
Ntp2381
Rp2382
(dp2383
g6
Nsg8
I00
sg9
Nsg15
NsbsVConfidently
p2384
g0
(g1
g2
Ntp2385
Rp2386
(dp2387
g6
Nsg8
I00
sg9
Nsg15
NsbsVwan
p2388
g0
(g1
g2
Ntp2389
Rp2390
(dp2391
g6
Nsg8
I00
sg9
Nsg15
NsbsVAmen
p2392
g0
(g1
g2
Ntp2393
Rp2394
(dp2395
g6
Nsg8
I00
sg9
Nsg15
NsbsVflying
p2396
g0
(g1
g2
Ntp2397
Rp2398
(dp2399
g6
Nsg8
I00
sg9
Nsg15
NsbsVTED
p2400
g0
(g1
g2
Ntp2401
Rp2402
(dp2403
g6
Nsg8
I00
sg9
Nsg15
NsbsVfight
p2404
g0
(g1
g2
Ntp2405
Rp2406
(dp2407
g6
Nsg8
I00
sg9
Nsg15
NsbsVPiramide
p2408
g0
(g1
g2
Ntp2409
Rp2410
(dp2411
g6
Nsg8
I00
sg9
Nsg15
NsbsVfraction
p2412
g0
(g1
g2
Ntp2413
Rp2414
(dp2415
g6
Nsg8
I00
sg9
Nsg15
NsbsVsniffles
p2416
g0
(g1
g2
Ntp2417
Rp2418
(dp2419
g6
Nsg8
I00
sg9
Nsg15
NsbsVmusic
p2420
g0
(g1
g2
Ntp2421
Rp2422
(dp2423
g6
Nsg8
I00
sg9
Nsg15
NsbsVwas
p2424
g0
(g1
g2
Ntp2425
Rp2426
(dp2427
g6
Nsg8
I00
sg9
Nsg15
NsbsVwar
p2428
g0
(g1
g2
Ntp2429
Rp2430
(dp2431
g6
Nsg8
I00
sg9
Nsg15
NsbsVhappy
p2432
g0
(g1
g2
Ntp2433
Rp2434
(dp2435
g6
Nsg8
I00
sg9
Nsg15
NsbsVhead
p2436
g0
(g1
g2
Ntp2437
Rp2438
(dp2439
g6
Nsg8
I00
sg9
Nsg15
NsbsVamateur
p2440
g0
(g1
g2
Ntp2441
Rp2442
(dp2443
g6
Nsg8
I00
sg9
Nsg15
NsbsVoffer
p2444
g0
(g1
g2
Ntp2445
Rp2446
(dp2447
g6
Nsg8
I00
sg9
Nsg15
NsbsVhear
p2448
g0
(g1
g2
Ntp2449
Rp2450
(dp2451
g6
Nsg8
I00
sg9
Nsg15
NsbsVbeech
p2452
g0
(g1
g2
Ntp2453
Rp2454
(dp2455
g6
Nsg8
I00
sg9
Nsg15
NsbsVtrue
p2456
g0
(g1
g2
Ntp2457
Rp2458
(dp2459
g6
Nsg8
I00
sg9
Nsg15
NsbsVhands.
p2460
g0
(g1
g2
Ntp2461
Rp2462
(dp2463
g6
Nsg8
I00
sg9
Nsg15
NsbsVnever
p2464
g0
(g1
g2
Ntp2465
Rp2466
(dp2467
g6
Nsg8
I00
sg9
Nsg15
Nsbsg573
g0
(g1
g2
Ntp2468
Rp2469
(dp2470
g6
Nsg8
I00
sg9
Nsg15
NsbsVScoreboard
p2471
g0
(g1
g2
Ntp2472
Rp2473
(dp2474
g6
Nsg8
I00
sg9
Nsg15
NsbsVdevices
p2475
g0
(g1
g2
Ntp2476
Rp2477
(dp2478
g6
Nsg8
I00
sg9
Nsg15
NsbsVtell
p2479
g0
(g1
g2
Ntp2480
Rp2481
(dp2482
g6
Nsg8
I00
sg9
Nsg15
NsbsVTony
p2483
g0
(g1
g2
Ntp2484
Rp2485
(dp2486
g6
Nsg8
I00
sg9
Nsg15
NsbsVhotter
p2487
g0
(g1
g2
Ntp2488
Rp2489
(dp2490
g6
Nsg8
I00
sg9
Nsg15
NsbsVSit
p2491
g0
(g1
g2
Ntp2492
Rp2493
(dp2494
g6
Nsg8
I00
sg9
Nsg15
NsbsVChez
p2495
g0
(g1
g2
Ntp2496
Rp2497
(dp2498
g6
Nsg8
I00
sg9
Nsg15
NsbsV''
p2499
g0
(g1
g2
Ntp2500
Rp2501
(dp2502
g6
Nsg8
I00
sg9
Nsg15
NsbsVdear
p2503
g0
(g1
g2
Ntp2504
Rp2505
(dp2506
g6
Nsg8
I00
sg9
Nsg15
NsbsVpromised
p2507
g0
(g1
g2
Ntp2508
Rp2509
(dp2510
g6
Nsg8
I00
sg9
Nsg15
NsbsVawhile
p2511
g0
(g1
g2
Ntp2512
Rp2513
(dp2514
g6
Nsg8
I00
sg9
Nsg15
NsbsVsympathy
p2515
g0
(g1
g2
Ntp2516
Rp2517
(dp2518
g6
Nsg8
I00
sg9
Nsg15
NsbsVtrip
p2519
g0
(g1
g2
Ntp2520
Rp2521
(dp2522
g6
Nsg8
I00
sg9
Nsg15
NsbsVOnly
p2523
g0
(g1
g2
Ntp2524
Rp2525
(dp2526
g6
Nsg8
I00
sg9
Nsg15
NsbsVno
p2527
g0
(g1
g2
Ntp2528
Rp2529
(dp2530
g6
Nsg8
I00
sg9
Nsg15
NsbsVna
p2531
g0
(g1
g2
Ntp2532
Rp2533
(dp2534
g6
Nsg8
I00
sg9
Nsg15
Nsbsg1677
g0
(g1
g2
Ntp2535
Rp2536
(dp2537
g6
Nsg8
I00
sg9
Nsg15
NsbsVreality
p2538
g0
(g1
g2
Ntp2539
Rp2540
(dp2541
g6
Nsg8
I00
sg9
Nsg15
NsbsVhandshake-you
p2542
g0
(g1
g2
Ntp2543
Rp2544
(dp2545
g6
Nsg8
I00
sg9
Nsg15
NsbsVholding
p2546
g0
(g1
g2
Ntp2547
Rp2548
(dp2549
g6
Nsg8
I00
sg9
Nsg15
NsbsVtie
p2550
g0
(g1
g2
Ntp2551
Rp2552
(dp2553
g6
Nsg8
I00
sg9
Nsg15
NsbsVpicture
p2554
g0
(g1
g2
Ntp2555
Rp2556
(dp2557
g6
Nsg8
I00
sg9
Nsg15
NsbsV's
p2558
g0
(g1
g2
Ntp2559
Rp2560
(dp2561
g6
Nsg8
I00
sg9
Nsg15
NsbsVLater
p2562
g0
(g1
g2
Ntp2563
Rp2564
(dp2565
g6
Nsg8
I00
sg9
Nsg15
NsbsVfell
p2566
g0
(g1
g2
Ntp2567
Rp2568
(dp2569
g6
Nsg8
I00
sg9
Nsg15
NsbsVscores
p2570
g0
(g1
g2
Ntp2571
Rp2572
(dp2573
g6
Nsg8
I00
sg9
Nsg15
NsbsV'm
p2574
g0
(g1
g2
Ntp2575
Rp2576
(dp2577
g6
Nsg8
I00
sg9
Nsg15
NsbsVweekend
p2578
g0
(g1
g2
Ntp2579
Rp2580
(dp2581
g6
Nsg8
I00
sg9
Nsg15
NsbsV'S
p2582
g0
(g1
g2
Ntp2583
Rp2584
(dp2585
g6
Nsg8
I00
sg9
Nsg15
NsbsVcheated
p2586
g0
(g1
g2
Ntp2587
Rp2588
(dp2589
g6
Nsg8
I00
sg9
Nsg15
NsbsVglass
p2590
g0
(g1
g2
Ntp2591
Rp2592
(dp2593
g6
Nsg8
I00
sg9
Nsg15
NsbsVtogether
p2594
g0
(g1
g2
Ntp2595
Rp2596
(dp2597
g6
Nsg8
I00
sg9
Nsg15
NsbsVtime
p2598
g0
(g1
g2
Ntp2599
Rp2600
(dp2601
g6
Nsg8
I00
sg9
Nsg15
NsbsVserious
p2602
g0
(g1
g2
Ntp2603
Rp2604
(dp2605
g6
Nsg8
I00
sg9
Nsg15
NsbsVbasically
p2606
g0
(g1
g2
Ntp2607
Rp2608
(dp2609
g6
Nsg8
I00
sg9
Nsg15
NsbsVchain
p2610
g0
(g1
g2
Ntp2611
Rp2612
(dp2613
g6
Nsg8
I00
sg9
Nsg15
NsbsVwhoever
p2614
g0
(g1
g2
Ntp2615
Rp2616
(dp2617
g6
Nsg8
I00
sg9
Nsg15
NsbsVdance
p2618
g0
(g1
g2
Ntp2619
Rp2620
(dp2621
g6
Nsg8
I00
sg9
Nsg15
NsbsVchair
p2622
g0
(g1
g2
Ntp2623
Rp2624
(dp2625
g6
Nsg8
I00
sg9
Nsg15
NsbsVmilk
p2626
g0
(g1
g2
Ntp2627
Rp2628
(dp2629
g6
Nsg8
I00
sg9
Nsg15
NsbsVToday
p2630
g0
(g1
g2
Ntp2631
Rp2632
(dp2633
g6
Nsg8
I00
sg9
Nsg15
NsbsVStinson
p2634
g0
(g1
g2
Ntp2635
Rp2636
(dp2637
g6
Nsg8
I00
sg9
Nsg15
NsbsVDad
p2638
g0
(g1
g2
Ntp2639
Rp2640
(dp2641
g6
Nsg8
I00
sg9
Nsg15
NsbsVfather
p2642
g0
(g1
g2
Ntp2643
Rp2644
(dp2645
g6
Nsg8
I01
sg9
Nsg15
NsbsVspecial.
p2646
g0
(g1
g2
Ntp2647
Rp2648
(dp2649
g6
Nsg8
I00
sg9
Nsg15
NsbsVfinally
p2650
g0
(g1
g2
Ntp2651
Rp2652
(dp2653
g6
Nsg8
I00
sg9
Nsg15
NsbsVGrandpa
p2654
g0
(g1
g2
Ntp2655
Rp2656
(dp2657
g6
Nsg8
I00
sg9
Nsg15
NsbsVFacebook
p2658
g0
(g1
g2
Ntp2659
Rp2660
(dp2661
g6
Nsg8
I00
sg9
Nsg15
NsbsVBelieve
p2662
g0
(g1
g2
Ntp2663
Rp2664
(dp2665
g6
Nsg8
I00
sg9
Nsg15
NsbsVDay
p2666
g0
(g1
g2
Ntp2667
Rp2668
(dp2669
g6
Nsg8
I00
sg9
Nsg15
NsbsVjerk
p2670
g0
(g1
g2
Ntp2671
Rp2672
(dp2673
g6
Nsg8
I00
sg9
Nsg15
NsbsV'but'.
p2674
g0
(g1
g2
Ntp2675
Rp2676
(dp2677
g6
Nsg8
I00
sg9
Nsg15
NsbsVchoice
p2678
g0
(g1
g2
Ntp2679
Rp2680
(dp2681
g6
Nsg8
I00
sg9
Nsg15
NsbsVword
p2682
g0
(g1
g2
Ntp2683
Rp2684
(dp2685
g6
Nsg8
I00
sg9
Nsg15
NsbsVtrouble
p2686
g0
(g1
g2
Ntp2687
Rp2688
(dp2689
g6
Nsg8
I00
sg9
Nsg15
NsbsVWhere
p2690
g0
(g1
g2
Ntp2691
Rp2692
(dp2693
g6
Nsg8
I00
sg9
Nsg15
NsbsVminute
p2694
g0
(g1
g2
Ntp2695
Rp2696
(dp2697
g6
Nsg8
I00
sg9
Nsg15
NsbsVcool
p2698
g0
(g1
g2
Ntp2699
Rp2700
(dp2701
g6
Nsg8
I00
sg9
Nsg15
NsbsVJust
p2702
g0
(g1
g2
Ntp2703
Rp2704
(dp2705
g6
Nsg8
I00
sg9
Nsg15
NsbsVdid
p2706
g0
(g1
g2
Ntp2707
Rp2708
(dp2709
g6
Nsg8
I00
sg9
Nsg15
NsbsVdie
p2710
g0
(g1
g2
Ntp2711
Rp2712
(dp2713
g6
Nsg8
I00
sg9
Nsg15
NsbsVbrother
p2714
g0
(g1
g2
Ntp2715
Rp2716
(dp2717
g6
Nsg8
I00
sg9
Nsg15
NsbsVleave
p2718
g0
(g1
g2
Ntp2719
Rp2720
(dp2721
g6
Nsg8
I00
sg9
Nsg15
NsbsVsolved
p2722
g0
(g1
g2
Ntp2723
Rp2724
(dp2725
g6
Nsg8
I00
sg9
Nsg15
NsbsVsettle
p2726
g0
(g1
g2
Ntp2727
Rp2728
(dp2729
g6
Nsg8
I00
sg9
Nsg15
Nsbsg1839
g0
(g1
g2
Ntp2730
Rp2731
(dp2732
g6
Nsg8
I00
sg9
Nsg15
NsbsVguy
p2733
g0
(g1
g2
Ntp2734
Rp2735
(dp2736
g6
Nsg8
I00
sg9
Nsg15
NsbsVGeorge
p2737
g0
(g1
g2
Ntp2738
Rp2739
(dp2740
g6
Nsg8
I00
sg9
Nsg15
NsbsVKevin
p2741
g0
(g1
g2
Ntp2742
Rp2743
(dp2744
g6
Nsg8
I00
sg9
Nsg15
NsbsVtalked
p2745
g0
(g1
g2
Ntp2746
Rp2747
(dp2748
g6
Nsg8
I00
sg9
Nsg15
NsbsVsays
p2749
g0
(g1
g2
Ntp2750
Rp2751
(dp2752
g6
Nsg8
I00
sg9
Nsg15
NsbsVBoy
p2753
g0
(g1
g2
Ntp2754
Rp2755
(dp2756
g6
Nsg8
I00
sg9
Nsg15
NsbsVsign
p2757
g0
(g1
g2
Ntp2758
Rp2759
(dp2760
g6
Nsg8
I00
sg9
Nsg15
NsbsVerotic
p2761
g0
(g1
g2
Ntp2762
Rp2763
(dp2764
g6
Nsg8
I00
sg9
Nsg15
NsbsVcost
p2765
g0
(g1
g2
Ntp2766
Rp2767
(dp2768
g6
Nsg8
I00
sg9
Nsg15
NsbsVRick
p2769
g0
(g1
g2
Ntp2770
Rp2771
(dp2772
g6
Nsg8
I00
sg9
Nsg15
NsbsVcomforting
p2773
g0
(g1
g2
Ntp2774
Rp2775
(dp2776
g6
Nsg8
I00
sg9
Nsg15
NsbsVdrinks
p2777
g0
(g1
g2
Ntp2778
Rp2779
(dp2780
g6
Nsg8
I00
sg9
Nsg15
NsbsVShatner
p2781
g0
(g1
g2
Ntp2782
Rp2783
(dp2784
g6
Nsg8
I00
sg9
Nsg15
NsbsVPluck
p2785
g0
(g1
g2
Ntp2786
Rp2787
(dp2788
g6
Nsg8
I00
sg9
Nsg15
NsbsVtelevision.
p2789
g0
(g1
g2
Ntp2790
Rp2791
(dp2792
g6
Nsg8
I00
sg9
Nsg15
NsbsVgoes
p2793
g0
(g1
g2
Ntp2794
Rp2795
(dp2796
g6
Nsg8
I00
sg9
Nsg15
NsbsVpretty.
p2797
g0
(g1
g2
Ntp2798
Rp2799
(dp2800
g6
Nsg8
I00
sg9
Nsg15
NsbsVfalling
p2801
g0
(g1
g2
Ntp2802
Rp2803
(dp2804
g6
Nsg8
I00
sg9
Nsg15
NsbsVfilled
p2805
g0
(g1
g2
Ntp2806
Rp2807
(dp2808
g6
Nsg8
I00
sg9
Nsg15
NsbsVMe
p2809
g0
(g1
g2
Ntp2810
Rp2811
(dp2812
g6
Nsg8
I00
sg9
Nsg15
NsbsVdrink.
p2813
g0
(g1
g2
Ntp2814
Rp2815
(dp2816
g6
Nsg8
I00
sg9
Nsg15
NsbsVwrestler
p2817
g0
(g1
g2
Ntp2818
Rp2819
(dp2820
g6
Nsg8
I00
sg9
Nsg15
NsbsVlanguages.
p2821
g0
(g1
g2
Ntp2822
Rp2823
(dp2824
g6
Nsg8
I00
sg9
Nsg15
NsbsVwater
p2825
g0
(g1
g2
Ntp2826
Rp2827
(dp2828
g6
Nsg8
I00
sg9
Nsg15
NsbsValone
p2829
g0
(g1
g2
Ntp2830
Rp2831
(dp2832
g6
Nsg8
I00
sg9
Nsg15
NsbsV[
p2833
g0
(g1
g2
Ntp2834
Rp2835
(dp2836
g6
Nsg8
I00
sg9
Nsg15
NsbsVMy
p2837
g0
(g1
g2
Ntp2838
Rp2839
(dp2840
g6
Nsg8
I00
sg9
Nsg15
NsbsVteacher
p2841
g0
(g1
g2
Ntp2842
Rp2843
(dp2844
g6
Nsg8
I00
sg9
Nsg15
NsbsVchange
p2845
g0
(g1
g2
Ntp2846
Rp2847
(dp2848
g6
Nsg8
I00
sg9
Nsg15
NsbsVwait
p2849
g0
(g1
g2
Ntp2850
Rp2851
(dp2852
g6
Nsg8
I00
sg9
Nsg15
NsbsVbox
p2853
g0
(g1
g2
Ntp2854
Rp2855
(dp2856
g6
Nsg8
I00
sg9
Nsg15
NsbsVYour
p2857
g0
(g1
g2
Ntp2858
Rp2859
(dp2860
g6
Nsg8
I00
sg9
Nsg15
NsbsVhere.
p2861
g0
(g1
g2
Ntp2862
Rp2863
(dp2864
g6
Nsg8
I00
sg9
Nsg15
NsbsV(
p2865
g0
(g1
g2
Ntp2866
Rp2867
(dp2868
g6
g344
sg8
I00
sg9
(dp2869
V!
p2870
g0
(g1
g2
Ntp2871
Rp2872
(dp2873
g6
Nsg8
I00
sg9
Nsg15
NsbsV...
p2874
g0
(g1
g2
Ntp2875
Rp2876
(dp2877
g6
Nsg8
I00
sg9
Nsg15
NsbsVhis
p2878
g0
(g1
g2
Ntp2879
Rp2880
(dp2881
g6
Nsg8
I00
sg9
Nsg15
NsbsVTed.
p2882
g0
(g1
g2
Ntp2883
Rp2884
(dp2885
g6
Nsg8
I00
sg9
Nsg15
NsbsVLily
p2886
g0
(g1
g2
Ntp2887
Rp2888
(dp2889
g6
Nsg8
I01
sg9
Nsg15
NsbsVMarshall
p2890
g0
(g1
g2
Ntp2891
Rp2892
(dp2893
g6
Nsg8
I00
sg9
Nsg15
NsbsVTed
p2894
g0
(g1
g2
Ntp2895
Rp2896
(dp2897
g6
Nsg8
I01
sg9
Nsg15
Nsbsg2132
g0
(g1
g2
Ntp2898
Rp2899
(dp2900
g6
Nsg8
I00
sg9
Nsg15
NsbsVAUDIENCE
p2901
g0
(g1
g2
Ntp2902
Rp2903
(dp2904
g6
Nsg8
I01
sg9
Nsg15
NsbsV?
p2905
g0
(g1
g2
Ntp2906
Rp2907
(dp2908
g6
Nsg8
I00
sg9
Nsg15
NsbsVhoped.
p2909
g0
(g1
g2
Ntp2910
Rp2911
(dp2912
g6
Nsg8
I00
sg9
Nsg15
NsbsVSascha.
p2913
g0
(g1
g2
Ntp2914
Rp2915
(dp2916
g6
Nsg8
I00
sg9
Nsg15
NsbsVcoming.
p2917
g0
(g1
g2
Ntp2918
Rp2919
(dp2920
g6
Nsg8
I00
sg9
Nsg15
NsbsV:
p2921
g0
(g1
g2
Ntp2922
Rp2923
(dp2924
g6
Nsg8
I00
sg9
Nsg15
NsbsVAmanda
p2925
g0
(g1
g2
Ntp2926
Rp2927
(dp2928
g6
Nsg8
I00
sg9
Nsg15
NsbsVit.
p2929
g0
(g1
g2
Ntp2930
Rp2931
(dp2932
g6
Nsg8
I00
sg9
Nsg15
NsbsVgreat.
p2933
g0
(g1
g2
Ntp2934
Rp2935
(dp2936
g6
Nsg8
I00
sg9
Nsg15
NsbsVMan
p2937
g0
(g1
g2
Ntp2938
Rp2939
(dp2940
g6
Nsg8
I00
sg9
Nsg15
Nsbssg15
NsbsVweird
p2941
g0
(g1
g2
Ntp2942
Rp2943
(dp2944
g6
Nsg8
I00
sg9
Nsg15
NsbsVmassage
p2945
g0
(g1
g2
Ntp2946
Rp2947
(dp2948
g6
Nsg8
I00
sg9
Nsg15
NsbsVlove
p2949
g0
(g1
g2
Ntp2950
Rp2951
(dp2952
g6
Nsg8
I00
sg9
Nsg15
NsbsVAngry
p2953
g0
(g1
g2
Ntp2954
Rp2955
(dp2956
g6
Nsg8
I00
sg9
Nsg15
NsbsVWhen
p2957
g0
(g1
g2
Ntp2958
Rp2959
(dp2960
g6
Nsg8
I00
sg9
Nsg15
NsbsVVanquished
p2961
g0
(g1
g2
Ntp2962
Rp2963
(dp2964
g6
Nsg8
I00
sg9
Nsg15
NsbsVfake
p2965
g0
(g1
g2
Ntp2966
Rp2967
(dp2968
g6
Nsg8
I00
sg9
Nsg15
NsbsVeverybody
p2969
g0
(g1
g2
Ntp2970
Rp2971
(dp2972
g6
Nsg8
I00
sg9
Nsg15
NsbsVworking
p2973
g0
(g1
g2
Ntp2974
Rp2975
(dp2976
g6
Nsg8
I00
sg9
Nsg15
NsbsVdude
p2977
g0
(g1
g2
Ntp2978
Rp2979
(dp2980
g6
Nsg8
I00
sg9
Nsg15
NsbsVonly
p2981
g0
(g1
g2
Ntp2982
Rp2983
(dp2984
g6
Nsg8
I00
sg9
Nsg15
NsbsVsports
p2985
g0
(g1
g2
Ntp2986
Rp2987
(dp2988
g6
Nsg8
I00
sg9
Nsg15
NsbsVlive
p2989
g0
(g1
g2
Ntp2990
Rp2991
(dp2992
g6
Nsg8
I00
sg9
Nsg15
NsbsVmemory
p2993
g0
(g1
g2
Ntp2994
Rp2995
(dp2996
g6
Nsg8
I00
sg9
Nsg15
NsbsVtoday
p2997
g0
(g1
g2
Ntp2998
Rp2999
(dp3000
g6
Nsg8
I00
sg9
Nsg15
NsbsV``
p3001
g0
(g1
g2
Ntp3002
Rp3003
(dp3004
g6
Nsg8
I00
sg9
Nsg15
NsbsVclub
p3005
g0
(g1
g2
Ntp3006
Rp3007
(dp3008
g6
Nsg8
I00
sg9
Nsg15
NsbsVRanjit
p3009
g0
(g1
g2
Ntp3010
Rp3011
(dp3012
g6
Nsg8
I00
sg9
Nsg15
NsbsVSquare
p3013
g0
(g1
g2
Ntp3014
Rp3015
(dp3016
g6
Nsg8
I00
sg9
Nsg15
NsbsVeverywhere
p3017
g0
(g1
g2
Ntp3018
Rp3019
(dp3020
g6
Nsg8
I00
sg9
Nsg15
NsbsVcases
p3021
g0
(g1
g2
Ntp3022
Rp3023
(dp3024
g6
Nsg8
I00
sg9
Nsg15
NsbsVeasiest
p3025
g0
(g1
g2
Ntp3026
Rp3027
(dp3028
g6
Nsg8
I00
sg9
Nsg15
NsbsVPriestley
p3029
g0
(g1
g2
Ntp3030
Rp3031
(dp3032
g6
Nsg8
I00
sg9
Nsg15
NsbsVBarney.
p3033
g0
(g1
g2
Ntp3034
Rp3035
(dp3036
g6
Nsg8
I00
sg9
Nsg15
NsbsVcar
p3037
g0
(g1
g2
Ntp3038
Rp3039
(dp3040
g6
Nsg8
I00
sg9
Nsg15
NsbsVflu
p3041
g0
(g1
g2
Ntp3042
Rp3043
(dp3044
g6
Nsg8
I00
sg9
Nsg15
NsbsVsoul
p3045
g0
(g1
g2
Ntp3046
Rp3047
(dp3048
g6
Nsg8
I00
sg9
Nsg15
NsbsVLois
p3049
g0
(g1
g2
Ntp3050
Rp3051
(dp3052
g6
Nsg8
I00
sg9
Nsg15
NsbsVcan
p3053
g0
(g1
g2
Ntp3054
Rp3055
(dp3056
g6
Nsg8
I00
sg9
Nsg15
NsbsVgrowing
p3057
g0
(g1
g2
Ntp3058
Rp3059
(dp3060
g6
Nsg8
I00
sg9
Nsg15
NsbsVarrive
p3061
g0
(g1
g2
Ntp3062
Rp3063
(dp3064
g6
Nsg8
I00
sg9
Nsg15
NsbsVChildren
p3065
g0
(g1
g2
Ntp3066
Rp3067
(dp3068
g6
Nsg8
I00
sg9
Nsg15
NsbsVheart
p3069
g0
(g1
g2
Ntp3070
Rp3071
(dp3072
g6
Nsg8
I00
sg9
Nsg15
NsbsVcrazy
p3073
g0
(g1
g2
Ntp3074
Rp3075
(dp3076
g6
Nsg8
I00
sg9
Nsg15
NsbsVawesome
p3077
g0
(g1
g2
Ntp3078
Rp3079
(dp3080
g6
Nsg8
I00
sg9
Nsg15
NsbsVsense
p3081
g0
(g1
g2
Ntp3082
Rp3083
(dp3084
g6
Nsg8
I00
sg9
Nsg15
NsbsVheard
p3085
g0
(g1
g2
Ntp3086
Rp3087
(dp3088
g6
Nsg8
I00
sg9
Nsg15
NsbsVSymphony
p3089
g0
(g1
g2
Ntp3090
Rp3091
(dp3092
g6
Nsg8
I00
sg9
Nsg15
NsbsVdropped
p3093
g0
(g1
g2
Ntp3094
Rp3095
(dp3096
g6
Nsg8
I00
sg9
Nsg15
NsbsVWho
p3097
g0
(g1
g2
Ntp3098
Rp3099
(dp3100
g6
Nsg8
I00
sg9
Nsg15
NsbsV1
p3101
g0
(g1
g2
Ntp3102
Rp3103
(dp3104
g6
Nsg8
I01
sg9
Nsg15
NsbsVfourth
p3105
g0
(g1
g2
Ntp3106
Rp3107
(dp3108
g6
Nsg8
I00
sg9
Nsg15
NsbsVWhy
p3109
g0
(g1
g2
Ntp3110
Rp3111
(dp3112
g6
Nsg8
I00
sg9
Nsg15
NsbsV7x17
p3113
g0
(g1
g2
Ntp3114
Rp3115
(dp3116
g6
Nsg8
I00
sg9
Nsg15
NsbsVNatalie
p3117
g0
(g1
g2
Ntp3118
Rp3119
(dp3120
g6
Nsg8
I00
sg9
Nsg15
NsbsVArcadian.
p3121
g0
(g1
g2
Ntp3122
Rp3123
(dp3124
g6
Nsg8
I00
sg9
Nsg15
NsbsVcrashes
p3125
g0
(g1
g2
Ntp3126
Rp3127
(dp3128
g6
Nsg8
I00
sg9
Nsg15
NsbsVinformation
p3129
g0
(g1
g2
Ntp3130
Rp3131
(dp3132
g6
Nsg8
I00
sg9
Nsg15
NsbsVIndigo
p3133
g0
(g1
g2
Ntp3134
Rp3135
(dp3136
g6
Nsg8
I00
sg9
Nsg15
NsbsVgranddaughter
p3137
g0
(g1
g2
Ntp3138
Rp3139
(dp3140
g6
Nsg8
I00
sg9
Nsg15
NsbsVneeds
p3141
g0
(g1
g2
Ntp3142
Rp3143
(dp3144
g6
Nsg8
I00
sg9
Nsg15
NsbsVDaredevil
p3145
g0
(g1
g2
Ntp3146
Rp3147
(dp3148
g6
Nsg8
I00
sg9
Nsg15
NsbsVbirthday
p3149
g0
(g1
g2
Ntp3150
Rp3151
(dp3152
g6
Nsg8
I00
sg9
Nsg15
NsbsVmad
p3153
g0
(g1
g2
Ntp3154
Rp3155
(dp3156
g6
Nsg8
I00
sg9
Nsg15
NsbsVdate
p3157
g0
(g1
g2
Ntp3158
Rp3159
(dp3160
g6
Nsg8
I00
sg9
Nsg15
NsbsVscrewed.
p3161
g0
(g1
g2
Ntp3162
Rp3163
(dp3164
g6
Nsg8
I00
sg9
Nsg15
NsbsVdata
p3165
g0
(g1
g2
Ntp3166
Rp3167
(dp3168
g6
Nsg8
I00
sg9
Nsg15
NsbsVman
p3169
g0
(g1
g2
Ntp3170
Rp3171
(dp3172
g6
Nsg8
I00
sg9
Nsg15
NsbsVclassroom
p3173
g0
(g1
g2
Ntp3174
Rp3175
(dp3176
g6
Nsg8
I00
sg9
Nsg15
Nsbsg673
g0
(g1
g2
Ntp3177
Rp3178
(dp3179
g6
Nsg8
I00
sg9
Nsg15
NsbsVremember
p3180
g0
(g1
g2
Ntp3181
Rp3182
(dp3183
g6
Nsg8
I00
sg9
Nsg15
NsbsVwhenever
p3184
g0
(g1
g2
Ntp3185
Rp3186
(dp3187
g6
Nsg8
I00
sg9
Nsg15
NsbsVmaybe
p3188
g0
(g1
g2
Ntp3189
Rp3190
(dp3191
g6
Nsg8
I00
sg9
Nsg15
NsbsVso
p3192
g0
(g1
g2
Ntp3193
Rp3194
(dp3195
g6
Nsg8
I00
sg9
Nsg15
NsbsVMinutes.
p3196
g0
(g1
g2
Ntp3197
Rp3198
(dp3199
g6
Nsg8
I00
sg9
Nsg15
NsbsVbasket
p3200
g0
(g1
g2
Ntp3201
Rp3202
(dp3203
g6
Nsg8
I00
sg9
Nsg15
NsbsVguessing.
p3204
g0
(g1
g2
Ntp3205
Rp3206
(dp3207
g6
Nsg8
I00
sg9
Nsg15
NsbsVtalk
p3208
g0
(g1
g2
Ntp3209
Rp3210
(dp3211
g6
Nsg8
I00
sg9
Nsg15
NsbsVBarney
p3212
g0
(g1
g2
Ntp3213
Rp3214
(dp3215
g6
Nsg8
I00
sg9
Nsg15
NsbsVwords
p3216
g0
(g1
g2
Ntp3217
Rp3218
(dp3219
g6
Nsg8
I00
sg9
Nsg15
NsbsVappartment
p3220
g0
(g1
g2
Ntp3221
Rp3222
(dp3223
g6
Nsg8
I00
sg9
Nsg15
NsbsVindeed
p3224
g0
(g1
g2
Ntp3225
Rp3226
(dp3227
g6
Nsg8
I00
sg9
Nsg15
NsbsVcruel.
p3228
g0
(g1
g2
Ntp3229
Rp3230
(dp3231
g6
Nsg8
I00
sg9
Nsg15
NsbsVyears
p3232
g0
(g1
g2
Ntp3233
Rp3234
(dp3235
g6
Nsg8
I00
sg9
Nsg15
NsbsVcourse
p3236
g0
(g1
g2
Ntp3237
Rp3238
(dp3239
g6
Nsg8
I00
sg9
Nsg15
NsbsVshake
p3240
g0
(g1
g2
Ntp3241
Rp3242
(dp3243
g6
Nsg8
I00
sg9
Nsg15
NsbsVstill
p3244
g0
(g1
g2
Ntp3245
Rp3246
(dp3247
g6
Nsg8
I00
sg9
Nsg15
NsbsVpolice
p3248
g0
(g1
g2
Ntp3249
Rp3250
(dp3251
g6
Nsg8
I00
sg9
Nsg15
NsbsVthumb
p3252
g0
(g1
g2
Ntp3253
Rp3254
(dp3255
g6
Nsg8
I00
sg9
Nsg15
NsbsVdid.
p3256
g0
(g1
g2
Ntp3257
Rp3258
(dp3259
g6
Nsg8
I00
sg9
Nsg15
NsbsVRegis
p3260
g0
(g1
g2
Ntp3261
Rp3262
(dp3263
g6
Nsg8
I00
sg9
Nsg15
NsbsVcoaching
p3264
g0
(g1
g2
Ntp3265
Rp3266
(dp3267
g6
Nsg8
I00
sg9
Nsg15
NsbsVserenaded
p3268
g0
(g1
g2
Ntp3269
Rp3270
(dp3271
g6
Nsg8
I00
sg9
Nsg15
NsbsVhappened
p3272
g0
(g1
g2
Ntp3273
Rp3274
(dp3275
g6
Nsg8
I00
sg9
Nsg15
NsbsVDiver.
p3276
g0
(g1
g2
Ntp3277
Rp3278
(dp3279
g6
Nsg8
I00
sg9
Nsg15
NsbsVAPARTMENT
p3280
g0
(g1
g2
Ntp3281
Rp3282
(dp3283
g6
Nsg8
I00
sg9
Nsg15
NsbsVlunch
p3284
g0
(g1
g2
Ntp3285
Rp3286
(dp3287
g6
Nsg8
I00
sg9
Nsg15
NsbsVShe
p3288
g0
(g1
g2
Ntp3289
Rp3290
(dp3291
g6
Nsg8
I00
sg9
Nsg15
NsbsVhalf
p3292
g0
(g1
g2
Ntp3293
Rp3294
(dp3295
g6
Nsg8
I00
sg9
Nsg15
NsbsVnot
p3296
g0
(g1
g2
Ntp3297
Rp3298
(dp3299
g6
Nsg8
I00
sg9
Nsg15
NsbsVopens.
p3300
g0
(g1
g2
Ntp3301
Rp3302
(dp3303
g6
Nsg8
I00
sg9
Nsg15
NsbsVnow
p3304
g0
(g1
g2
Ntp3305
Rp3306
(dp3307
g6
Nsg8
I00
sg9
Nsg15
NsbsVkilled
p3308
g0
(g1
g2
Ntp3309
Rp3310
(dp3311
g6
Nsg8
I00
sg9
Nsg15
NsbsVsaid:
p3312
g0
(g1
g2
Ntp3313
Rp3314
(dp3315
g6
Nsg8
I00
sg9
Nsg15
NsbsVmatched
p3316
g0
(g1
g2
Ntp3317
Rp3318
(dp3319
g6
Nsg8
I00
sg9
Nsg15
NsbsVname
p3320
g0
(g1
g2
Ntp3321
Rp3322
(dp3323
g6
Nsg8
I00
sg9
Nsg15
NsbsVdrop
p3324
g0
(g1
g2
Ntp3325
Rp3326
(dp3327
g6
Nsg8
I00
sg9
Nsg15
NsbsVchuckles
p3328
g0
(g1
g2
Ntp3329
Rp3330
(dp3331
g6
Nsg8
I00
sg9
Nsg15
NsbsVbirthday.
p3332
g0
(g1
g2
Ntp3333
Rp3334
(dp3335
g6
Nsg8
I00
sg9
Nsg15
NsbsVrock
p3336
g0
(g1
g2
Ntp3337
Rp3338
(dp3339
g6
Nsg8
I00
sg9
Nsg15
NsbsVquarter
p3340
g0
(g1
g2
Ntp3341
Rp3342
(dp3343
g6
Nsg8
I00
sg9
Nsg15
NsbsVs*x
p3344
g0
(g1
g2
Ntp3345
Rp3346
(dp3347
g6
Nsg8
I00
sg9
Nsg15
NsbsVMove
p3348
g0
(g1
g2
Ntp3349
Rp3350
(dp3351
g6
Nsg8
I00
sg9
Nsg15
NsbsVDude
p3352
g0
(g1
g2
Ntp3353
Rp3354
(dp3355
g6
Nsg8
I00
sg9
Nsg15
NsbsVyeah
p3356
g0
(g1
g2
Ntp3357
Rp3358
(dp3359
g6
Nsg8
I00
sg9
Nsg15
NsbsVex
p3360
g0
(g1
g2
Ntp3361
Rp3362
(dp3363
g6
Nsg8
I00
sg9
Nsg15
NsbsVyear
p3364
g0
(g1
g2
Ntp3365
Rp3366
(dp3367
g6
Nsg8
I00
sg9
Nsg15
NsbsVokay
p3368
g0
(g1
g2
Ntp3369
Rp3370
(dp3371
g6
Nsg8
I00
sg9
Nsg15
NsbsVgirl
p3372
g0
(g1
g2
Ntp3373
Rp3374
(dp3375
g6
Nsg8
I00
sg9
Nsg15
NsbsVworried
p3376
g0
(g1
g2
Ntp3377
Rp3378
(dp3379
g6
Nsg8
I00
sg9
Nsg15
NsbsVplans
p3380
g0
(g1
g2
Ntp3381
Rp3382
(dp3383
g6
Nsg8
I00
sg9
Nsg15
NsbsVliving
p3384
g0
(g1
g2
Ntp3385
Rp3386
(dp3387
g6
Nsg8
I00
sg9
Nsg15
NsbsVrounding
p3388
g0
(g1
g2
Ntp3389
Rp3390
(dp3391
g6
Nsg8
I00
sg9
Nsg15
NsbsVWelcome
p3392
g0
(g1
g2
Ntp3393
Rp3394
(dp3395
g6
Nsg8
I00
sg9
Nsg15
NsbsVLeopard
p3396
g0
(g1
g2
Ntp3397
Rp3398
(dp3399
g6
Nsg8
I00
sg9
Nsg15
NsbsVlooking
p3400
g0
(g1
g2
Ntp3401
Rp3402
(dp3403
g6
Nsg8
I00
sg9
Nsg15
NsbsVseriously
p3404
g0
(g1
g2
Ntp3405
Rp3406
(dp3407
g6
Nsg8
I00
sg9
Nsg15
NsbsVMaureen
p3408
g0
(g1
g2
Ntp3409
Rp3410
(dp3411
g6
Nsg8
I00
sg9
Nsg15
NsbsVEND
p3412
g0
(g1
g2
Ntp3413
Rp3414
(dp3415
g6
Nsg8
I00
sg9
Nsg15
NsbsVboobs
p3416
g0
(g1
g2
Ntp3417
Rp3418
(dp3419
g6
Nsg8
I00
sg9
Nsg15
NsbsVpossibility
p3420
g0
(g1
g2
Ntp3421
Rp3422
(dp3423
g6
Nsg8
I00
sg9
Nsg15
NsbsVpolice.
p3424
g0
(g1
g2
Ntp3425
Rp3426
(dp3427
g6
Nsg8
I00
sg9
Nsg15
NsbsVvinyl
p3428
g0
(g1
g2
Ntp3429
Rp3430
(dp3431
g6
Nsg8
I00
sg9
Nsg15
NsbsVSecurity
p3432
g0
(g1
g2
Ntp3433
Rp3434
(dp3435
g6
Nsg8
I00
sg9
Nsg15
NsbsVcard
p3436
g0
(g1
g2
Ntp3437
Rp3438
(dp3439
g6
Nsg8
I00
sg9
Nsg15
NsbsVcare
p3440
g0
(g1
g2
Ntp3441
Rp3442
(dp3443
g6
Nsg8
I00
sg9
Nsg15
NsbsVdisguised
p3444
g0
(g1
g2
Ntp3445
Rp3446
(dp3447
g6
Nsg8
I00
sg9
Nsg15
NsbsVhonest
p3448
g0
(g1
g2
Ntp3449
Rp3450
(dp3451
g6
Nsg8
I00
sg9
Nsg15
NsbsVthing
p3452
g0
(g1
g2
Ntp3453
Rp3454
(dp3455
g6
Nsg8
I00
sg9
Nsg15
NsbsVplace
p3456
g0
(g1
g2
Ntp3457
Rp3458
(dp3459
g6
Nsg8
I00
sg9
Nsg15
NsbsVunborn
p3460
g0
(g1
g2
Ntp3461
Rp3462
(dp3463
g6
Nsg8
I00
sg9
Nsg15
NsbsVchildhood
p3464
g0
(g1
g2
Ntp3465
Rp3466
(dp3467
g6
Nsg8
I00
sg9
Nsg15
NsbsVfirst
p3468
g0
(g1
g2
Ntp3469
Rp3470
(dp3471
g6
Nsg8
I00
sg9
Nsg15
NsbsVclause
p3472
g0
(g1
g2
Ntp3473
Rp3474
(dp3475
g6
Nsg8
I00
sg9
Nsg15
NsbsVThere
p3476
g0
(g1
g2
Ntp3477
Rp3478
(dp3479
g6
Nsg8
I00
sg9
Nsg15
NsbsVyourself
p3480
g0
(g1
g2
Ntp3481
Rp3482
(dp3483
g6
Nsg8
I00
sg9
Nsg15
NsbsVfast
p3484
g0
(g1
g2
Ntp3485
Rp3486
(dp3487
g6
Nsg8
I00
sg9
Nsg15
NsbsVdirectly
p3488
g0
(g1
g2
Ntp3489
Rp3490
(dp3491
g6
Nsg8
I00
sg9
Nsg15
NsbsVProbably
p3492
g0
(g1
g2
Ntp3493
Rp3494
(dp3495
g6
Nsg8
I00
sg9
Nsg15
NsbsVring
p3496
g0
(g1
g2
Ntp3497
Rp3498
(dp3499
g6
Nsg8
I00
sg9
Nsg15
NsbsVopen
p3500
g0
(g1
g2
Ntp3501
Rp3502
(dp3503
g6
Nsg8
I00
sg9
Nsg15
NsbsV'em
p3504
g0
(g1
g2
Ntp3505
Rp3506
(dp3507
g6
Nsg8
I00
sg9
Nsg15
NsbsVeye.
p3508
g0
(g1
g2
Ntp3509
Rp3510
(dp3511
g6
Nsg8
I00
sg9
Nsg15
NsbsVcity
p3512
g0
(g1
g2
Ntp3513
Rp3514
(dp3515
g6
Nsg8
I00
sg9
Nsg15
NsbsVlittle
p3516
g0
(g1
g2
Ntp3517
Rp3518
(dp3519
g6
Nsg8
I00
sg9
Nsg15
NsbsVchecked
p3520
g0
(g1
g2
Ntp3521
Rp3522
(dp3523
g6
Nsg8
I00
sg9
Nsg15
NsbsVbite
p3524
g0
(g1
g2
Ntp3525
Rp3526
(dp3527
g6
Nsg8
I00
sg9
Nsg15
NsbsVanyone
p3528
g0
(g1
g2
Ntp3529
Rp3530
(dp3531
g6
Nsg8
I00
sg9
Nsg15
NsbsVDate
p3532
g0
(g1
g2
Ntp3533
Rp3534
(dp3535
g6
Nsg8
I00
sg9
Nsg15
NsbsVlegally
p3536
g0
(g1
g2
Ntp3537
Rp3538
(dp3539
g6
Nsg8
I00
sg9
Nsg15
Nsbsg533
g0
(g1
g2
Ntp3540
Rp3541
(dp3542
g6
Nsg8
I00
sg9
Nsg15
NsbsVway
p3543
g0
(g1
g2
Ntp3544
Rp3545
(dp3546
g6
Nsg8
I00
sg9
Nsg15
NsbsVthat
p3547
g0
(g1
g2
Ntp3548
Rp3549
(dp3550
g6
Nsg8
I00
sg9
Nsg15
NsbsVPatrick
p3551
g0
(g1
g2
Ntp3552
Rp3553
(dp3554
g6
Nsg8
I00
sg9
Nsg15
NsbsVreleased
p3555
g0
(g1
g2
Ntp3556
Rp3557
(dp3558
g6
Nsg8
I00
sg9
Nsg15
NsbsVfooled
p3559
g0
(g1
g2
Ntp3560
Rp3561
(dp3562
g6
Nsg8
I00
sg9
Nsg15
NsbsVthan
p3563
g0
(g1
g2
Ntp3564
Rp3565
(dp3566
g6
Nsg8
I00
sg9
Nsg15
NsbsVspecify
p3567
g0
(g1
g2
Ntp3568
Rp3569
(dp3570
g6
Nsg8
I00
sg9
Nsg15
NsbsVboyfriend
p3571
g0
(g1
g2
Ntp3572
Rp3573
(dp3574
g6
Nsg8
I00
sg9
Nsg15
NsbsVMcWouaf.
p3575
g0
(g1
g2
Ntp3576
Rp3577
(dp3578
g6
Nsg8
I00
sg9
Nsg15
NsbsVwide
p3579
g0
(g1
g2
Ntp3580
Rp3581
(dp3582
g6
Nsg8
I00
sg9
Nsg15
NsbsV12
p3583
g0
(g1
g2
Ntp3584
Rp3585
(dp3586
g6
Nsg8
I00
sg9
Nsg15
NsbsV15
p3587
g0
(g1
g2
Ntp3588
Rp3589
(dp3590
g6
Nsg8
I00
sg9
Nsg15
NsbsV18
p3591
g0
(g1
g2
Ntp3592
Rp3593
(dp3594
g6
Nsg8
I00
sg9
Nsg15
NsbsVstammer
p3595
g0
(g1
g2
Ntp3596
Rp3597
(dp3598
g6
Nsg8
I00
sg9
Nsg15
NsbsVfuture
p3599
g0
(g1
g2
Ntp3600
Rp3601
(dp3602
g6
Nsg8
I00
sg9
Nsg15
NsbsVVir
p3603
g0
(g1
g2
Ntp3604
Rp3605
(dp3606
g6
Nsg8
I00
sg9
Nsg15
NsbsVwere
p3607
g0
(g1
g2
Ntp3608
Rp3609
(dp3610
g6
Nsg8
I00
sg9
Nsg15
NsbsVcards
p3611
g0
(g1
g2
Ntp3612
Rp3613
(dp3614
g6
Nsg8
I00
sg9
Nsg15
NsbsVasleep
p3615
g0
(g1
g2
Ntp3616
Rp3617
(dp3618
g6
Nsg8
I00
sg9
Nsg15
NsbsVcounselor
p3619
g0
(g1
g2
Ntp3620
Rp3621
(dp3622
g6
Nsg8
I00
sg9
Nsg15
NsbsVjanitor
p3623
g0
(g1
g2
Ntp3624
Rp3625
(dp3626
g6
Nsg8
I00
sg9
Nsg15
NsbsVpage.
p3627
g0
(g1
g2
Ntp3628
Rp3629
(dp3630
g6
Nsg8
I00
sg9
Nsg15
NsbsVtasted
p3631
g0
(g1
g2
Ntp3632
Rp3633
(dp3634
g6
Nsg8
I00
sg9
Nsg15
NsbsVangel
p3635
g0
(g1
g2
Ntp3636
Rp3637
(dp3638
g6
Nsg8
I00
sg9
Nsg15
NsbsVpro
p3639
g0
(g1
g2
Ntp3640
Rp3641
(dp3642
g6
Nsg8
I00
sg9
Nsg15
NsbsVslap
p3643
g0
(g1
g2
Ntp3644
Rp3645
(dp3646
g6
Nsg8
I00
sg9
Nsg15
NsbsVsad
p3647
g0
(g1
g2
Ntp3648
Rp3649
(dp3650
g6
Nsg8
I00
sg9
Nsg15
NsbsVsay
p3651
g0
(g1
g2
Ntp3652
Rp3653
(dp3654
g6
Nsg8
I00
sg9
Nsg15
NsbsVrent
p3655
g0
(g1
g2
Ntp3656
Rp3657
(dp3658
g6
Nsg8
I00
sg9
Nsg15
NsbsVbreakfast
p3659
g0
(g1
g2
Ntp3660
Rp3661
(dp3662
g6
Nsg8
I00
sg9
Nsg15
NsbsVsaw
p3663
g0
(g1
g2
Ntp3664
Rp3665
(dp3666
g6
Nsg8
I00
sg9
Nsg15
NsbsVany
p3667
g0
(g1
g2
Ntp3668
Rp3669
(dp3670
g6
Nsg8
I00
sg9
Nsg15
NsbsVsat
p3671
g0
(g1
g2
Ntp3672
Rp3673
(dp3674
g6
Nsg8
I00
sg9
Nsg15
NsbsVDo
p3675
g0
(g1
g2
Ntp3676
Rp3677
(dp3678
g6
Nsg8
I00
sg9
Nsg15
NsbsVsilhouette
p3679
g0
(g1
g2
Ntp3680
Rp3681
(dp3682
g6
Nsg8
I00
sg9
Nsg15
NsbsVaside
p3683
g0
(g1
g2
Ntp3684
Rp3685
(dp3686
g6
Nsg8
I00
sg9
Nsg15
NsbsVKleenex
p3687
g0
(g1
g2
Ntp3688
Rp3689
(dp3690
g6
Nsg8
I00
sg9
Nsg15
NsbsVtake
p3691
g0
(g1
g2
Ntp3692
Rp3693
(dp3694
g6
Nsg8
I00
sg9
Nsg15
NsbsVdestroy
p3695
g0
(g1
g2
Ntp3696
Rp3697
(dp3698
g6
Nsg8
I00
sg9
Nsg15
NsbsVchannel
p3699
g0
(g1
g2
Ntp3700
Rp3701
(dp3702
g6
Nsg8
I00
sg9
Nsg15
NsbsVsurf
p3703
g0
(g1
g2
Ntp3704
Rp3705
(dp3706
g6
Nsg8
I00
sg9
Nsg15
NsbsVsure
p3707
g0
(g1
g2
Ntp3708
Rp3709
(dp3710
g6
Nsg8
I00
sg9
Nsg15
NsbsVtrack
p3711
g0
(g1
g2
Ntp3712
Rp3713
(dp3714
g6
Nsg8
I00
sg9
Nsg15
NsbsVknew
p3715
g0
(g1
g2
Ntp3716
Rp3717
(dp3718
g6
Nsg8
I00
sg9
Nsg15
NsbsVbuffet
p3719
g0
(g1
g2
Ntp3720
Rp3721
(dp3722
g6
Nsg8
I00
sg9
Nsg15
NsbsVfalls
p3723
g0
(g1
g2
Ntp3724
Rp3725
(dp3726
g6
Nsg8
I00
sg9
Nsg15
NsbsVrehearsal
p3727
g0
(g1
g2
Ntp3728
Rp3729
(dp3730
g6
Nsg8
I00
sg9
Nsg15
NsbsV]
p3731
g0
(g1
g2
Ntp3732
Rp3733
(dp3734
g6
Nsg8
I00
sg9
Nsg15
Nsbsg669
g0
(g1
g2
Ntp3735
Rp3736
(dp3737
g6
Nsg8
I00
sg9
Nsg15
NsbsVespecially
p3738
g0
(g1
g2
Ntp3739
Rp3740
(dp3741
g6
Nsg8
I00
sg9
Nsg15
NsbsVaverage
p3742
g0
(g1
g2
Ntp3743
Rp3744
(dp3745
g6
Nsg8
I00
sg9
Nsg15
NsbsVlater
p3746
g0
(g1
g2
Ntp3747
Rp3748
(dp3749
g6
Nsg8
I00
sg9
Nsg15
NsbsVsteady
p3750
g0
(g1
g2
Ntp3751
Rp3752
(dp3753
g6
Nsg8
I00
sg9
Nsg15
NsbsVdrive
p3754
g0
(g1
g2
Ntp3755
Rp3756
(dp3757
g6
Nsg8
I00
sg9
Nsg15
NsbsVFLASHBACK
p3758
g0
(g1
g2
Ntp3759
Rp3760
(dp3761
g6
Nsg8
I00
sg9
Nsg15
NsbsValone.
p3762
g0
(g1
g2
Ntp3763
Rp3764
(dp3765
g6
Nsg8
I00
sg9
Nsg15
NsbsVWeb
p3766
g0
(g1
g2
Ntp3767
Rp3768
(dp3769
g6
Nsg8
I00
sg9
Nsg15
NsbsVwalking
p3770
g0
(g1
g2
Ntp3771
Rp3772
(dp3773
g6
Nsg8
I00
sg9
Nsg15
NsbsVshot
p3774
g0
(g1
g2
Ntp3775
Rp3776
(dp3777
g6
Nsg8
I00
sg9
Nsg15
NsbsVshow
p3778
g0
(g1
g2
Ntp3779
Rp3780
(dp3781
g6
Nsg8
I00
sg9
Nsg15
NsbsVRoll
p3782
g0
(g1
g2
Ntp3783
Rp3784
(dp3785
g6
Nsg8
I00
sg9
Nsg15
NsbsVWe
p3786
g0
(g1
g2
Ntp3787
Rp3788
(dp3789
g6
Nsg8
I00
sg9
Nsg15
NsbsVWoman
p3790
g0
(g1
g2
Ntp3791
Rp3792
(dp3793
g6
Nsg8
I00
sg9
Nsg15
NsbsVJurassic
p3794
g0
(g1
g2
Ntp3795
Rp3796
(dp3797
g6
Nsg8
I00
sg9
Nsg15
NsbsVtitle
p3798
g0
(g1
g2
Ntp3799
Rp3800
(dp3801
g6
Nsg8
I00
sg9
Nsg15
Nsbsg1701
g0
(g1
g2
Ntp3802
Rp3803
(dp3804
g6
Nsg8
I00
sg9
Nsg15
Nsbsg381
g0
(g1
g2
Ntp3805
Rp3806
(dp3807
g6
Nsg8
I00
sg9
Nsg15
NsbsVgoing
p3808
g0
(g1
g2
Ntp3809
Rp3810
(dp3811
g6
Nsg8
I00
sg9
Nsg15
NsbsVbelieving
p3812
g0
(g1
g2
Ntp3813
Rp3814
(dp3815
g6
Nsg8
I00
sg9
Nsg15
NsbsVhockey
p3816
g0
(g1
g2
Ntp3817
Rp3818
(dp3819
g6
Nsg8
I00
sg9
Nsg15
NsbsVDruthers
p3820
g0
(g1
g2
Ntp3821
Rp3822
(dp3823
g6
g1595
sg8
I00
sg9
(dp3824
g1832
g0
(g1
g2
Ntp3825
Rp3826
(dp3827
g6
Nsg8
I01
sg9
Nsg15
NsbsV'm
p3828
g0
(g1
g2
Ntp3829
Rp3830
(dp3831
g6
Nsg8
I00
sg9
Nsg15
NsbsVhow
p3832
g0
(g1
g2
Ntp3833
Rp3834
(dp3835
g6
Nsg8
I00
sg9
Nsg15
Nsbssg15
NsbsVneato
p3836
g0
(g1
g2
Ntp3837
Rp3838
(dp3839
g6
Nsg8
I00
sg9
Nsg15
NsbsVseen.
p3840
g0
(g1
g2
Ntp3841
Rp3842
(dp3843
g6
Nsg8
I00
sg9
Nsg15
NsbsVget
p3844
g0
(g1
g2
Ntp3845
Rp3846
(dp3847
g6
Nsg8
I00
sg9
Nsg15
NsbsVyou're-you
p3848
g0
(g1
g2
Ntp3849
Rp3850
(dp3851
g6
Nsg8
I00
sg9
Nsg15
NsbsVridonkulous
p3852
g0
(g1
g2
Ntp3853
Rp3854
(dp3855
g6
Nsg8
I00
sg9
Nsg15
NsbsVfreaking
p3856
g0
(g1
g2
Ntp3857
Rp3858
(dp3859
g6
Nsg8
I00
sg9
Nsg15
NsbsVRight
p3860
g0
(g1
g2
Ntp3861
Rp3862
(dp3863
g6
Nsg8
I00
sg9
Nsg15
NsbsVW-
p3864
g0
(g1
g2
Ntp3865
Rp3866
(dp3867
g6
Nsg8
I00
sg9
Nsg15
NsbsVmorning
p3868
g0
(g1
g2
Ntp3869
Rp3870
(dp3871
g6
Nsg8
I00
sg9
Nsg15
NsbsVnaked
p3872
g0
(g1
g2
Ntp3873
Rp3874
(dp3875
g6
Nsg8
I00
sg9
Nsg15
NsbsVtiki
p3876
g0
(g1
g2
Ntp3877
Rp3878
(dp3879
g6
Nsg8
I00
sg9
Nsg15
NsbsVstupid
p3880
g0
(g1
g2
Ntp3881
Rp3882
(dp3883
g6
Nsg8
I00
sg9
Nsg15
NsbsVbison
p3884
g0
(g1
g2
Ntp3885
Rp3886
(dp3887
g6
Nsg8
I00
sg9
Nsg15
Nsbsg2909
g0
(g1
g2
Ntp3888
Rp3889
(dp3890
g6
Nsg8
I00
sg9
Nsg15
NsbsVpants
p3891
g0
(g1
g2
Ntp3892
Rp3893
(dp3894
g6
Nsg8
I00
sg9
Nsg15
NsbsVwhere
p3895
g0
(g1
g2
Ntp3896
Rp3897
(dp3898
g6
Nsg8
I00
sg9
Nsg15
NsbsVPosers.
p3899
g0
(g1
g2
Ntp3900
Rp3901
(dp3902
g6
Nsg8
I00
sg9
Nsg15
NsbsVpicnic
p3903
g0
(g1
g2
Ntp3904
Rp3905
(dp3906
g6
Nsg8
I00
sg9
Nsg15
NsbsVburst
p3907
g0
(g1
g2
Ntp3908
Rp3909
(dp3910
g6
Nsg8
I00
sg9
Nsg15
NsbsVseat
p3911
g0
(g1
g2
Ntp3912
Rp3913
(dp3914
g6
Nsg8
I00
sg9
Nsg15
NsbsVcollege
p3915
g0
(g1
g2
Ntp3916
Rp3917
(dp3918
g6
Nsg8
I00
sg9
Nsg15
NsbsVwonder
p3919
g0
(g1
g2
Ntp3920
Rp3921
(dp3922
g6
Nsg8
I00
sg9
Nsg15
NsbsVum
p3923
g0
(g1
g2
Ntp3924
Rp3925
(dp3926
g6
Nsg8
I00
sg9
Nsg15
NsbsVcome.
p3927
g0
(g1
g2
Ntp3928
Rp3929
(dp3930
g6
Nsg8
I00
sg9
Nsg15
NsbsVThat
p3931
g0
(g1
g2
Ntp3932
Rp3933
(dp3934
g6
Nsg8
I00
sg9
Nsg15
NsbsVenough
p3935
g0
(g1
g2
Ntp3936
Rp3937
(dp3938
g6
Nsg8
I00
sg9
Nsg15
NsbsVstupid.
p3939
g0
(g1
g2
Ntp3940
Rp3941
(dp3942
g6
Nsg8
I00
sg9
Nsg15
NsbsVnaked.
p3943
g0
(g1
g2
Ntp3944
Rp3945
(dp3946
g6
Nsg8
I00
sg9
Nsg15
NsbsVreading
p3947
g0
(g1
g2
Ntp3948
Rp3949
(dp3950
g6
Nsg8
I00
sg9
Nsg15
NsbsVacross
p3951
g0
(g1
g2
Ntp3952
Rp3953
(dp3954
g6
Nsg8
I00
sg9
Nsg15
NsbsVdate.
p3955
g0
(g1
g2
Ntp3956
Rp3957
(dp3958
g6
Nsg8
I00
sg9
Nsg15
NsbsVvertical
p3959
g0
(g1
g2
Ntp3960
Rp3961
(dp3962
g6
Nsg8
I00
sg9
Nsg15
NsbsVanyway.
p3963
g0
(g1
g2
Ntp3964
Rp3965
(dp3966
g6
Nsg8
I00
sg9
Nsg15
NsbsVpluck
p3967
g0
(g1
g2
Ntp3968
Rp3969
(dp3970
g6
Nsg8
I00
sg9
Nsg15
NsbsVMarch
p3971
g0
(g1
g2
Ntp3972
Rp3973
(dp3974
g6
Nsg8
I00
sg9
Nsg15
NsbsVcome
p3975
g0
(g1
g2
Ntp3976
Rp3977
(dp3978
g6
Nsg8
I00
sg9
Nsg15
NsbsVBob.
p3979
g0
(g1
g2
Ntp3980
Rp3981
(dp3982
g6
Nsg8
I00
sg9
Nsg15
NsbsVsuperstar
p3983
g0
(g1
g2
Ntp3984
Rp3985
(dp3986
g6
Nsg8
I00
sg9
Nsg15
NsbsVGive
p3987
g0
(g1
g2
Ntp3988
Rp3989
(dp3990
g6
Nsg8
I00
sg9
Nsg15
NsbsVmany
p3991
g0
(g1
g2
Ntp3992
Rp3993
(dp3994
g6
Nsg8
I00
sg9
Nsg15
NsbsVquiet
p3995
g0
(g1
g2
Ntp3996
Rp3997
(dp3998
g6
Nsg8
I00
sg9
Nsg15
NsbsVsketchy
p3999
g0
(g1
g2
Ntp4000
Rp4001
(dp4002
g6
Nsg8
I00
sg9
Nsg15
NsbsVloudly
p4003
g0
(g1
g2
Ntp4004
Rp4005
(dp4006
g6
Nsg8
I00
sg9
Nsg15
NsbsVway.
p4007
g0
(g1
g2
Ntp4008
Rp4009
(dp4010
g6
Nsg8
I00
sg9
Nsg15
NsbsV2002.
p4011
g0
(g1
g2
Ntp4012
Rp4013
(dp4014
g6
Nsg8
I00
sg9
Nsg15
NsbsVcomes
p4015
g0
(g1
g2
Ntp4016
Rp4017
(dp4018
g6
Nsg8
I00
sg9
Nsg15
NsbsVduty
p4019
g0
(g1
g2
Ntp4020
Rp4021
(dp4022
g6
Nsg8
I00
sg9
Nsg15
NsbsVamong
p4023
g0
(g1
g2
Ntp4024
Rp4025
(dp4026
g6
Nsg8
I00
sg9
Nsg15
NsbsVGuess
p4027
g0
(g1
g2
Ntp4028
Rp4029
(dp4030
g6
Nsg8
I00
sg9
Nsg15
NsbsV6.
p4031
g0
(g1
g2
Ntp4032
Rp4033
(dp4034
g6
Nsg8
I00
sg9
Nsg15
NsbsV60
p4035
g0
(g1
g2
Ntp4036
Rp4037
(dp4038
g6
Nsg8
I00
sg9
Nsg15
NsbsVdestroyed
p4039
g0
(g1
g2
Ntp4040
Rp4041
(dp4042
g6
Nsg8
I00
sg9
Nsg15
NsbsVdress.
p4043
g0
(g1
g2
Ntp4044
Rp4045
(dp4046
g6
Nsg8
I00
sg9
Nsg15
NsbsVclassic
p4047
g0
(g1
g2
Ntp4048
Rp4049
(dp4050
g6
Nsg8
I00
sg9
Nsg15
NsbsVBut
p4051
g0
(g1
g2
Ntp4052
Rp4053
(dp4054
g6
Nsg8
I00
sg9
Nsg15
NsbsVbreath
p4055
g0
(g1
g2
Ntp4056
Rp4057
(dp4058
g6
Nsg8
I00
sg9
Nsg15
NsbsVHurry
p4059
g0
(g1
g2
Ntp4060
Rp4061
(dp4062
g6
Nsg8
I00
sg9
Nsg15
NsbsV500
p4063
g0
(g1
g2
Ntp4064
Rp4065
(dp4066
g6
Nsg8
I00
sg9
Nsg15
NsbsVblessing
p4067
g0
(g1
g2
Ntp4068
Rp4069
(dp4070
g6
Nsg8
I00
sg9
Nsg15
NsbsVtiger
p4071
g0
(g1
g2
Ntp4072
Rp4073
(dp4074
g6
Nsg8
I00
sg9
Nsg15
NsbsVPoints
p4075
g0
(g1
g2
Ntp4076
Rp4077
(dp4078
g6
Nsg8
I00
sg9
Nsg15
NsbsVwake
p4079
g0
(g1
g2
Ntp4080
Rp4081
(dp4082
g6
Nsg8
I00
sg9
Nsg15
NsbsVthose
p4083
g0
(g1
g2
Ntp4084
Rp4085
(dp4086
g6
Nsg8
I00
sg9
Nsg15
NsbsVcase
p4087
g0
(g1
g2
Ntp4088
Rp4089
(dp4090
g6
Nsg8
I00
sg9
Nsg15
NsbsVmyself
p4091
g0
(g1
g2
Ntp4092
Rp4093
(dp4094
g6
Nsg8
I00
sg9
Nsg15
NsbsVLily.
p4095
g0
(g1
g2
Ntp4096
Rp4097
(dp4098
g6
Nsg8
I00
sg9
Nsg15
NsbsVfolding
p4099
g0
(g1
g2
Ntp4100
Rp4101
(dp4102
g6
Nsg8
I00
sg9
Nsg15
NsbsVthese
p4103
g0
(g1
g2
Ntp4104
Rp4105
(dp4106
g6
Nsg8
I00
sg9
Nsg15
NsbsVconsultant
p4107
g0
(g1
g2
Ntp4108
Rp4109
(dp4110
g6
Nsg8
I00
sg9
Nsg15
NsbsVMarshall
p4111
g0
(g1
g2
Ntp4112
Rp4113
(dp4114
g6
Nsg8
I00
sg9
Nsg15
NsbsVHhhhh
p4115
g0
(g1
g2
Ntp4116
Rp4117
(dp4118
g6
Nsg8
I00
sg9
Nsg15
NsbsVn't
p4119
g0
(g1
g2
Ntp4120
Rp4121
(dp4122
g6
Nsg8
I00
sg9
Nsg15
NsbsVnewspaper
p4123
g0
(g1
g2
Ntp4124
Rp4125
(dp4126
g6
Nsg8
I00
sg9
Nsg15
NsbsVendured
p4127
g0
(g1
g2
Ntp4128
Rp4129
(dp4130
g6
Nsg8
I00
sg9
Nsg15
NsbsVago
p4131
g0
(g1
g2
Ntp4132
Rp4133
(dp4134
g6
Nsg8
I00
sg9
Nsg15
NsbsVgrown-ups
p4135
g0
(g1
g2
Ntp4136
Rp4137
(dp4138
g6
Nsg8
I00
sg9
Nsg15
NsbsVBank.
p4139
g0
(g1
g2
Ntp4140
Rp4141
(dp4142
g6
Nsg8
I00
sg9
Nsg15
NsbsVpurse
p4143
g0
(g1
g2
Ntp4144
Rp4145
(dp4146
g6
Nsg8
I00
sg9
Nsg15
NsbsVcoffee
p4147
g0
(g1
g2
Ntp4148
Rp4149
(dp4150
g6
Nsg8
I00
sg9
Nsg15
NsbsVbros
p4151
g0
(g1
g2
Ntp4152
Rp4153
(dp4154
g6
Nsg8
I00
sg9
Nsg15
NsbsVGNB
p4155
g0
(g1
g2
Ntp4156
Rp4157
(dp4158
g6
Nsg8
I00
sg9
Nsg15
NsbsVmiddle
p4159
g0
(g1
g2
Ntp4160
Rp4161
(dp4162
g6
Nsg8
I00
sg9
Nsg15
NsbsVevening
p4163
g0
(g1
g2
Ntp4164
Rp4165
(dp4166
g6
Nsg8
I00
sg9
Nsg15
NsbsVBar
p4167
g0
(g1
g2
Ntp4168
Rp4169
(dp4170
g6
Nsg8
I00
sg9
Nsg15
NsbsVwisely
p4171
g0
(g1
g2
Ntp4172
Rp4173
(dp4174
g6
Nsg8
I00
sg9
Nsg15
NsbsVtechnology
p4175
g0
(g1
g2
Ntp4176
Rp4177
(dp4178
g6
Nsg8
I00
sg9
Nsg15
NsbsVworry
p4179
g0
(g1
g2
Ntp4180
Rp4181
(dp4182
g6
Nsg8
I00
sg9
Nsg15
NsbsVpay
p4183
g0
(g1
g2
Ntp4184
Rp4185
(dp4186
g6
Nsg8
I00
sg9
Nsg15
NsbsVbowl
p4187
g0
(g1
g2
Ntp4188
Rp4189
(dp4190
g6
Nsg8
I00
sg9
Nsg15
NsbsVs
p4191
g0
(g1
g2
Ntp4192
Rp4193
(dp4194
g6
Nsg8
I00
sg9
Nsg15
NsbsVcost.
p4195
g0
(g1
g2
Ntp4196
Rp4197
(dp4198
g6
Nsg8
I00
sg9
Nsg15
NsbsVmole
p4199
g0
(g1
g2
Ntp4200
Rp4201
(dp4202
g6
Nsg8
I00
sg9
Nsg15
NsbsVspeech
p4203
g0
(g1
g2
Ntp4204
Rp4205
(dp4206
g6
Nsg8
I00
sg9
Nsg15
NsbsVcoworkers
p4207
g0
(g1
g2
Ntp4208
Rp4209
(dp4210
g6
Nsg8
I00
sg9
Nsg15
NsbsVstatus
p4211
g0
(g1
g2
Ntp4212
Rp4213
(dp4214
g6
Nsg8
I00
sg9
Nsg15
NsbsVfinish
p4215
g0
(g1
g2
Ntp4216
Rp4217
(dp4218
g6
Nsg8
I00
sg9
Nsg15
NsbsVapplaud
p4219
g0
(g1
g2
Ntp4220
Rp4221
(dp4222
g6
Nsg8
I00
sg9
Nsg15
NsbsVrunning
p4223
g0
(g1
g2
Ntp4224
Rp4225
(dp4226
g6
Nsg8
I00
sg9
Nsg15
NsbsVbro.
p4227
g0
(g1
g2
Ntp4228
Rp4229
(dp4230
g6
Nsg8
I00
sg9
Nsg15
NsbsV%
p4231
g0
(g1
g2
Ntp4232
Rp4233
(dp4234
g6
Nsg8
I00
sg9
Nsg15
NsbsVtotally
p4235
g0
(g1
g2
Ntp4236
Rp4237
(dp4238
g6
Nsg8
I00
sg9
Nsg15
NsbsVbreak
p4239
g0
(g1
g2
Ntp4240
Rp4241
(dp4242
g6
Nsg8
I00
sg9
Nsg15
NsbsVburrito
p4243
g0
(g1
g2
Ntp4244
Rp4245
(dp4246
g6
Nsg8
I00
sg9
Nsg15
NsbsVIs
p4247
g0
(g1
g2
Ntp4248
Rp4249
(dp4250
g6
Nsg8
I00
sg9
Nsg15
NsbsVfloor
p4251
g0
(g1
g2
Ntp4252
Rp4253
(dp4254
g6
Nsg8
I00
sg9
Nsg15
NsbsVIt
p4255
g0
(g1
g2
Ntp4256
Rp4257
(dp4258
g6
Nsg8
I00
sg9
Nsg15
NsbsVwithout
p4259
g0
(g1
g2
Ntp4260
Rp4261
(dp4262
g6
Nsg8
I00
sg9
Nsg15
NsbsVsolve
p4263
g0
(g1
g2
Ntp4264
Rp4265
(dp4266
g6
Nsg8
I00
sg9
Nsg15
NsbsVbottle
p4267
g0
(g1
g2
Ntp4268
Rp4269
(dp4270
g6
Nsg8
I00
sg9
Nsg15
NsbsVIn
p4271
g0
(g1
g2
Ntp4272
Rp4273
(dp4274
g6
Nsg8
I00
sg9
Nsg15
NsbsVIf
p4275
g0
(g1
g2
Ntp4276
Rp4277
(dp4278
g6
Nsg8
I00
sg9
Nsg15
NsbsVsummer
p4279
g0
(g1
g2
Ntp4280
Rp4281
(dp4282
g6
Nsg8
I00
sg9
Nsg15
NsbsVfollowed.
p4283
g0
(g1
g2
Ntp4284
Rp4285
(dp4286
g6
Nsg8
I00
sg9
Nsg15
NsbsVVikings
p4287
g0
(g1
g2
Ntp4288
Rp4289
(dp4290
g6
Nsg8
I00
sg9
Nsg15
NsbsVam.
p4291
g0
(g1
g2
Ntp4292
Rp4293
(dp4294
g6
Nsg8
I00
sg9
Nsg15
NsbsVbeing
p4295
g0
(g1
g2
Ntp4296
Rp4297
(dp4298
g6
Nsg8
I00
sg9
Nsg15
NsbsVmoney
p4299
g0
(g1
g2
Ntp4300
Rp4301
(dp4302
g6
Nsg8
I00
sg9
Nsg15
NsbsVkill
p4303
g0
(g1
g2
Ntp4304
Rp4305
(dp4306
g6
Nsg8
I00
sg9
Nsg15
NsbsVexhibitions
p4307
g0
(g1
g2
Ntp4308
Rp4309
(dp4310
g6
Nsg8
I00
sg9
Nsg15
NsbsVhalfway
p4311
g0
(g1
g2
Ntp4312
Rp4313
(dp4314
g6
Nsg8
I00
sg9
Nsg15
NsbsVblondes
p4315
g0
(g1
g2
Ntp4316
Rp4317
(dp4318
g6
Nsg8
I00
sg9
Nsg15
NsbsVthinking
p4319
g0
(g1
g2
Ntp4320
Rp4321
(dp4322
g6
Nsg8
I00
sg9
Nsg15
NsbsVseems
p4323
g0
(g1
g2
Ntp4324
Rp4325
(dp4326
g6
Nsg8
I00
sg9
Nsg15
NsbsVexcept
p4327
g0
(g1
g2
Ntp4328
Rp4329
(dp4330
g6
Nsg8
I00
sg9
Nsg15
NsbsVBilson.
p4331
g0
(g1
g2
Ntp4332
Rp4333
(dp4334
g6
Nsg8
I00
sg9
Nsg15
NsbsVgym.
p4335
g0
(g1
g2
Ntp4336
Rp4337
(dp4338
g6
Nsg8
I00
sg9
Nsg15
NsbsVreal
p4339
g0
(g1
g2
Ntp4340
Rp4341
(dp4342
g6
Nsg8
I00
sg9
Nsg15
NsbsVwife.
p4343
g0
(g1
g2
Ntp4344
Rp4345
(dp4346
g6
Nsg8
I00
sg9
Nsg15
NsbsVaround
p4347
g0
(g1
g2
Ntp4348
Rp4349
(dp4350
g6
Nsg8
I00
sg9
Nsg15
NsbsVrules
p4351
g0
(g1
g2
Ntp4352
Rp4353
(dp4354
g6
Nsg8
I00
sg9
Nsg15
NsbsVDecember
p4355
g0
(g1
g2
Ntp4356
Rp4357
(dp4358
g6
Nsg8
I00
sg9
Nsg15
Nsbsg393
g0
(g1
g2
Ntp4359
Rp4360
(dp4361
g6
Nsg8
I00
sg9
Nsg15
NsbsVAunt
p4362
g0
(g1
g2
Ntp4363
Rp4364
(dp4365
g6
Nsg8
I00
sg9
Nsg15
NsbsVMosby
p4366
g0
(g1
g2
Ntp4367
Rp4368
(dp4369
g6
Nsg8
I00
sg9
Nsg15
NsbsVmom
p4370
g0
(g1
g2
Ntp4371
Rp4372
(dp4373
g6
Nsg8
I00
sg9
Nsg15
NsbsVworld
p4374
g0
(g1
g2
Ntp4375
Rp4376
(dp4377
g6
Nsg8
I00
sg9
Nsg15
NsbsVimplicate
p4378
g0
(g1
g2
Ntp4379
Rp4380
(dp4381
g6
Nsg8
I00
sg9
Nsg15
NsbsVTalk
p4382
g0
(g1
g2
Ntp4383
Rp4384
(dp4385
g6
Nsg8
I00
sg9
Nsg15
NsbsVfurniture
p4386
g0
(g1
g2
Ntp4387
Rp4388
(dp4389
g6
Nsg8
I00
sg9
Nsg15
NsbsVvending
p4390
g0
(g1
g2
Ntp4391
Rp4392
(dp4393
g6
Nsg8
I00
sg9
Nsg15
NsbsVpregnant
p4394
g0
(g1
g2
Ntp4395
Rp4396
(dp4397
g6
Nsg8
I00
sg9
Nsg15
NsbsVserves
p4398
g0
(g1
g2
Ntp4399
Rp4400
(dp4401
g6
Nsg8
I00
sg9
Nsg15
NsbsV've
p4402
g0
(g1
g2
Ntp4403
Rp4404
(dp4405
g6
Nsg8
I00
sg9
Nsg15
NsbsVlaughing
p4406
g0
(g1
g2
Ntp4407
Rp4408
(dp4409
g6
Nsg8
I00
sg9
Nsg15
NsbsVwoman.
p4410
g0
(g1
g2
Ntp4411
Rp4412
(dp4413
g6
Nsg8
I00
sg9
Nsg15
NsbsVMan
p4414
g0
(g1
g2
Ntp4415
Rp4416
(dp4417
g6
Nsg8
I00
sg9
Nsg15
NsbsVsmiles
p4418
g0
(g1
g2
Ntp4419
Rp4420
(dp4421
g6
Nsg8
I00
sg9
Nsg15
NsbsVWest
p4422
g0
(g1
g2
Ntp4423
Rp4424
(dp4425
g6
Nsg8
I00
sg9
Nsg15
NsbsVSince
p4426
g0
(g1
g2
Ntp4427
Rp4428
(dp4429
g6
Nsg8
I00
sg9
Nsg15
NsbsVEllen
p4430
g0
(g1
g2
Ntp4431
Rp4432
(dp4433
g6
Nsg8
I00
sg9
Nsg15
NsbsVimages
p4434
g0
(g1
g2
Ntp4435
Rp4436
(dp4437
g6
Nsg8
I00
sg9
Nsg15
NsbsVNew
p4438
g0
(g1
g2
Ntp4439
Rp4440
(dp4441
g6
Nsg8
I00
sg9
Nsg15
Nsbsg437
g0
(g1
g2
Ntp4442
Rp4443
(dp4444
g6
Nsg8
I00
sg9
Nsg15
NsbsVHello
p4445
g0
(g1
g2
Ntp4446
Rp4447
(dp4448
g6
Nsg8
I00
sg9
Nsg15
NsbsVnoon
p4449
g0
(g1
g2
Ntp4450
Rp4451
(dp4452
g6
Nsg8
I00
sg9
Nsg15
NsbsVEarlier
p4453
g0
(g1
g2
Ntp4454
Rp4455
(dp4456
g6
Nsg8
I00
sg9
Nsg15
NsbsVMet
p4457
g0
(g1
g2
Ntp4458
Rp4459
(dp4460
g6
Nsg8
I00
sg9
Nsg15
NsbsVexit
p4461
g0
(g1
g2
Ntp4462
Rp4463
(dp4464
g6
Nsg8
I00
sg9
Nsg15
NsbsVfelt
p4465
g0
(g1
g2
Ntp4466
Rp4467
(dp4468
g6
Nsg8
I00
sg9
Nsg15
NsbsVscientific
p4469
g0
(g1
g2
Ntp4470
Rp4471
(dp4472
g6
Nsg8
I00
sg9
Nsg15
NsbsVpower
p4473
g0
(g1
g2
Ntp4474
Rp4475
(dp4476
g6
Nsg8
I00
sg9
Nsg15
NsbsVdeejay
p4477
g0
(g1
g2
Ntp4478
Rp4479
(dp4480
g6
Nsg8
I00
sg9
Nsg15
NsbsVbroken
p4481
g0
(g1
g2
Ntp4482
Rp4483
(dp4484
g6
Nsg8
I00
sg9
Nsg15
NsbsVlifeboats
p4485
g0
(g1
g2
Ntp4486
Rp4487
(dp4488
g6
Nsg8
I00
sg9
Nsg15
NsbsVthrow
p4489
g0
(g1
g2
Ntp4490
Rp4491
(dp4492
g6
Nsg8
I00
sg9
Nsg15
NsbsVon
p4493
g0
(g1
g2
Ntp4494
Rp4495
(dp4496
g6
Nsg8
I00
sg9
Nsg15
NsbsVisland
p4497
g0
(g1
g2
Ntp4498
Rp4499
(dp4500
g6
Nsg8
I00
sg9
Nsg15
NsbsVRelax
p4501
g0
(g1
g2
Ntp4502
Rp4503
(dp4504
g6
Nsg8
I00
sg9
Nsg15
NsbsVfavorite
p4505
g0
(g1
g2
Ntp4506
Rp4507
(dp4508
g6
Nsg8
I00
sg9
Nsg15
NsbsVCheck
p4509
g0
(g1
g2
Ntp4510
Rp4511
(dp4512
g6
g1595
sg8
I01
sg9
(dp4513
g1832
g0
(g1
g2
Ntp4514
Rp4515
(dp4516
g6
Nsg8
I01
sg9
Nsg15
NsbsVLily
p4517
g0
(g1
g2
Ntp4518
Rp4519
(dp4520
g6
Nsg8
I00
sg9
Nsg15
Nsbssg15
NsbsV'd
p4521
g0
(g1
g2
Ntp4522
Rp4523
(dp4524
g6
Nsg8
I00
sg9
Nsg15
NsbsVawful.
p4525
g0
(g1
g2
Ntp4526
Rp4527
(dp4528
g6
Nsg8
I00
sg9
Nsg15
NsbsVor
p4529
g0
(g1
g2
Ntp4530
Rp4531
(dp4532
g6
Nsg8
I00
sg9
Nsg15
NsbsVroad
p4533
g0
(g1
g2
Ntp4534
Rp4535
(dp4536
g6
Nsg8
I00
sg9
Nsg15
NsbsVNo
p4537
g0
(g1
g2
Ntp4538
Rp4539
(dp4540
g6
Nsg8
I00
sg9
Nsg15
NsbsVBowl
p4541
g0
(g1
g2
Ntp4542
Rp4543
(dp4544
g6
Nsg8
I00
sg9
Nsg15
NsbsVSparky
p4545
g0
(g1
g2
Ntp4546
Rp4547
(dp4548
g6
Nsg8
I00
sg9
Nsg15
NsbsVeveryone
p4549
g0
(g1
g2
Ntp4550
Rp4551
(dp4552
g6
Nsg8
I00
sg9
Nsg15
NsbsVstrip
p4553
g0
(g1
g2
Ntp4554
Rp4555
(dp4556
g6
Nsg8
I00
sg9
Nsg15
NsbsVnames.
p4557
g0
(g1
g2
Ntp4558
Rp4559
(dp4560
g6
Nsg8
I00
sg9
Nsg15
Nsbsg1653
g0
(g1
g2
Ntp4561
Rp4562
(dp4563
g6
Nsg8
I00
sg9
Nsg15
NsbsVcate
p4564
g0
(g1
g2
Ntp4565
Rp4566
(dp4567
g6
Nsg8
I00
sg9
Nsg15
NsbsVher
p4568
g0
(g1
g2
Ntp4569
Rp4570
(dp4571
g6
Nsg8
I00
sg9
Nsg15
NsbsVarea
p4572
g0
(g1
g2
Ntp4573
Rp4574
(dp4575
g6
Nsg8
I00
sg9
Nsg15
NsbsVassumed
p4576
g0
(g1
g2
Ntp4577
Rp4578
(dp4579
g6
Nsg8
I00
sg9
Nsg15
NsbsVHyah
p4580
g0
(g1
g2
Ntp4581
Rp4582
(dp4583
g6
Nsg8
I00
sg9
Nsg15
NsbsVthere
p4584
g0
(g1
g2
Ntp4585
Rp4586
(dp4587
g6
Nsg8
I00
sg9
Nsg15
NsbsVhey
p4588
g0
(g1
g2
Ntp4589
Rp4590
(dp4591
g6
Nsg8
I00
sg9
Nsg15
NsbsVcats
p4592
g0
(g1
g2
Ntp4593
Rp4594
(dp4595
g6
Nsg8
I00
sg9
Nsg15
NsbsVlow
p4596
g0
(g1
g2
Ntp4597
Rp4598
(dp4599
g6
Nsg8
I00
sg9
Nsg15
NsbsVstars
p4600
g0
(g1
g2
Ntp4601
Rp4602
(dp4603
g6
Nsg8
I00
sg9
Nsg15
NsbsVpretends
p4604
g0
(g1
g2
Ntp4605
Rp4606
(dp4607
g6
Nsg8
I00
sg9
Nsg15
NsbsVyou.
p4608
g0
(g1
g2
Ntp4609
Rp4610
(dp4611
g6
Nsg8
I00
sg9
Nsg15
NsbsVgroan
p4612
g0
(g1
g2
Ntp4613
Rp4614
(dp4615
g6
Nsg8
I00
sg9
Nsg15
NsbsVmammals
p4616
g0
(g1
g2
Ntp4617
Rp4618
(dp4619
g6
Nsg8
I00
sg9
Nsg15
NsbsVtrying
p4620
g0
(g1
g2
Ntp4621
Rp4622
(dp4623
g6
Nsg8
I00
sg9
Nsg15
NsbsVwith
p4624
g0
(g1
g2
Ntp4625
Rp4626
(dp4627
g6
Nsg8
I00
sg9
Nsg15
NsbsVfaster
p4628
g0
(g1
g2
Ntp4629
Rp4630
(dp4631
g6
Nsg8
I00
sg9
Nsg15
NsbsVpull
p4632
g0
(g1
g2
Ntp4633
Rp4634
(dp4635
g6
Nsg8
I00
sg9
Nsg15
NsbsVdarken
p4636
g0
(g1
g2
Ntp4637
Rp4638
(dp4639
g6
Nsg8
I00
sg9
Nsg15
NsbsVromantic
p4640
g0
(g1
g2
Ntp4641
Rp4642
(dp4643
g6
Nsg8
I00
sg9
Nsg15
NsbsVdirty
p4644
g0
(g1
g2
Ntp4645
Rp4646
(dp4647
g6
Nsg8
I00
sg9
Nsg15
NsbsVagree
p4648
g0
(g1
g2
Ntp4649
Rp4650
(dp4651
g6
Nsg8
I00
sg9
Nsg15
NsbsVdistance
p4652
g0
(g1
g2
Ntp4653
Rp4654
(dp4655
g6
Nsg8
I00
sg9
Nsg15
NsbsVgone
p4656
g0
(g1
g2
Ntp4657
Rp4658
(dp4659
g6
Nsg8
I00
sg9
Nsg15
NsbsVbrand.
p4660
g0
(g1
g2
Ntp4661
Rp4662
(dp4663
g6
Nsg8
I00
sg9
Nsg15
NsbsVam
p4664
g0
(g1
g2
Ntp4665
Rp4666
(dp4667
g6
Nsg8
I00
sg9
Nsg15
NsbsVdeep
p4668
g0
(g1
g2
Ntp4669
Rp4670
(dp4671
g6
Nsg8
I00
sg9
Nsg15
NsbsVan
p4672
g0
(g1
g2
Ntp4673
Rp4674
(dp4675
g6
Nsg8
I00
sg9
Nsg15
NsbsVHow
p4676
g0
(g1
g2
Ntp4677
Rp4678
(dp4679
g6
Nsg8
I00
sg9
Nsg15
NsbsVas
p4680
g0
(g1
g2
Ntp4681
Rp4682
(dp4683
g6
Nsg8
I00
sg9
Nsg15
NsbsVat
p4684
g0
(g1
g2
Ntp4685
Rp4686
(dp4687
g6
Nsg8
I00
sg9
Nsg15
NsbsVlightly
p4688
g0
(g1
g2
Ntp4689
Rp4690
(dp4691
g6
Nsg8
I00
sg9
Nsg15
NsbsVwalks
p4692
g0
(g1
g2
Ntp4693
Rp4694
(dp4695
g6
Nsg8
I00
sg9
Nsg15
NsbsVgirlfriend
p4696
g0
(g1
g2
Ntp4697
Rp4698
(dp4699
g6
Nsg8
I00
sg9
Nsg15
NsbsVwatched
p4700
g0
(g1
g2
Ntp4701
Rp4702
(dp4703
g6
Nsg8
I00
sg9
Nsg15
NsbsVhorse
p4704
g0
(g1
g2
Ntp4705
Rp4706
(dp4707
g6
Nsg8
I00
sg9
Nsg15
NsbsVfilm
p4708
g0
(g1
g2
Ntp4709
Rp4710
(dp4711
g6
Nsg8
I00
sg9
Nsg15
NsbsVagain
p4712
g0
(g1
g2
Ntp4713
Rp4714
(dp4715
g6
Nsg8
I00
sg9
Nsg15
NsbsVLuau.
p4716
g0
(g1
g2
Ntp4717
Rp4718
(dp4719
g6
Nsg8
I00
sg9
Nsg15
NsbsVidiot
p4720
g0
(g1
g2
Ntp4721
Rp4722
(dp4723
g6
Nsg8
I00
sg9
Nsg15
NsbsVdeserve
p4724
g0
(g1
g2
Ntp4725
Rp4726
(dp4727
g6
Nsg8
I00
sg9
Nsg15
NsbsVtight
p4728
g0
(g1
g2
Ntp4729
Rp4730
(dp4731
g6
Nsg8
I00
sg9
Nsg15
NsbsVyou
p4732
g0
(g1
g2
Ntp4733
Rp4734
(dp4735
g6
Nsg8
I00
sg9
Nsg15
NsbsVtrash
p4736
g0
(g1
g2
Ntp4737
Rp4738
(dp4739
g6
Nsg8
I00
sg9
Nsg15
NsbsVpoor
p4740
g0
(g1
g2
Ntp4741
Rp4742
(dp4743
g6
Nsg8
I00
sg9
Nsg15
NsbsVGreat
p4744
g0
(g1
g2
Ntp4745
Rp4746
(dp4747
g6
Nsg8
I00
sg9
Nsg15
NsbsVdiaries
p4748
g0
(g1
g2
Ntp4749
Rp4750
(dp4751
g6
Nsg8
I00
sg9
Nsg15
NsbsVstudents
p4752
g0
(g1
g2
Ntp4753
Rp4754
(dp4755
g6
Nsg8
I00
sg9
Nsg15
NsbsVimportant
p4756
g0
(g1
g2
Ntp4757
Rp4758
(dp4759
g6
Nsg8
I00
sg9
Nsg15
NsbsVincluded
p4760
g0
(g1
g2
Ntp4761
Rp4762
(dp4763
g6
Nsg8
I00
sg9
Nsg15
Nsbsg541
g0
(g1
g2
Ntp4764
Rp4765
(dp4766
g6
Nsg8
I00
sg9
Nsg15
NsbsVwife
p4767
g0
(g1
g2
Ntp4768
Rp4769
(dp4770
g6
Nsg8
I00
sg9
Nsg15
NsbsVApparently
p4771
g0
(g1
g2
Ntp4772
Rp4773
(dp4774
g6
Nsg8
I00
sg9
Nsg15
NsbsVYeah
p4775
g0
(g1
g2
Ntp4776
Rp4777
(dp4778
g6
Nsg8
I00
sg9
Nsg15
NsbsVsounded
p4779
g0
(g1
g2
Ntp4780
Rp4781
(dp4782
g6
Nsg8
I00
sg9
Nsg15
NsbsVexhausting
p4783
g0
(g1
g2
Ntp4784
Rp4785
(dp4786
g6
Nsg8
I00
sg9
Nsg15
NsbsVYear
p4787
g0
(g1
g2
Ntp4788
Rp4789
(dp4790
g6
Nsg8
I00
sg9
Nsg15
NsbsVstarting
p4791
g0
(g1
g2
Ntp4792
Rp4793
(dp4794
g6
Nsg8
I00
sg9
Nsg15
NsbsVCanada
p4795
g0
(g1
g2
Ntp4796
Rp4797
(dp4798
g6
Nsg8
I00
sg9
Nsg15
NsbsVall
p4799
g0
(g1
g2
Ntp4800
Rp4801
(dp4802
g6
Nsg8
I00
sg9
Nsg15
NsbsVforget
p4803
g0
(g1
g2
Ntp4804
Rp4805
(dp4806
g6
Nsg8
I00
sg9
Nsg15
NsbsVduplicates
p4807
g0
(g1
g2
Ntp4808
Rp4809
(dp4810
g6
Nsg8
I00
sg9
Nsg15
NsbsVtalks
p4811
g0
(g1
g2
Ntp4812
Rp4813
(dp4814
g6
Nsg8
I00
sg9
Nsg15
NsbsVdecisions
p4815
g0
(g1
g2
Ntp4816
Rp4817
(dp4818
g6
Nsg8
I00
sg9
Nsg15
NsbsVchildren
p4819
g0
(g1
g2
Ntp4820
Rp4821
(dp4822
g6
Nsg8
I00
sg9
Nsg15
NsbsVWilliam
p4823
g0
(g1
g2
Ntp4824
Rp4825
(dp4826
g6
Nsg8
I00
sg9
Nsg15
Nsbsg361
g0
(g1
g2
Ntp4827
Rp4828
(dp4829
g6
Nsg8
I00
sg9
Nsg15
NsbsVlesbian.
p4830
g0
(g1
g2
Ntp4831
Rp4832
(dp4833
g6
Nsg8
I00
sg9
Nsg15
NsbsVto
p4834
g0
(g1
g2
Ntp4835
Rp4836
(dp4837
g6
Nsg8
I00
sg9
Nsg15
NsbsVdairy
p4838
g0
(g1
g2
Ntp4839
Rp4840
(dp4841
g6
Nsg8
I00
sg9
Nsg15
NsbsVenjoying
p4842
g0
(g1
g2
Ntp4843
Rp4844
(dp4845
g6
Nsg8
I00
sg9
Nsg15
NsbsVta
p4846
g0
(g1
g2
Ntp4847
Rp4848
(dp4849
g6
Nsg8
I00
sg9
Nsg15
NsbsVwoman
p4850
g0
(g1
g2
Ntp4851
Rp4852
(dp4853
g6
Nsg8
I00
sg9
Nsg15
NsbsVreturned
p4854
g0
(g1
g2
Ntp4855
Rp4856
(dp4857
g6
Nsg8
I00
sg9
Nsg15
NsbsVsitting
p4858
g0
(g1
g2
Ntp4859
Rp4860
(dp4861
g6
Nsg8
I00
sg9
Nsg15
NsbsVvery
p4862
g0
(g1
g2
Ntp4863
Rp4864
(dp4865
g6
Nsg8
I00
sg9
Nsg15
NsbsVticked
p4866
g0
(g1
g2
Ntp4867
Rp4868
(dp4869
g6
Nsg8
I00
sg9
Nsg15
NsbsVfat
p4870
g0
(g1
g2
Ntp4871
Rp4872
(dp4873
g6
Nsg8
I00
sg9
Nsg15
NsbsVrogue
p4874
g0
(g1
g2
Ntp4875
Rp4876
(dp4877
g6
Nsg8
I00
sg9
Nsg15
NsbsVfan
p4878
g0
(g1
g2
Ntp4879
Rp4880
(dp4881
g6
Nsg8
I00
sg9
Nsg15
NsbsVfall
p4882
g0
(g1
g2
Ntp4883
Rp4884
(dp4885
g6
Nsg8
I00
sg9
Nsg15
NsbsV--
p4886
g0
(g1
g2
Ntp4887
Rp4888
(dp4889
g6
Nsg8
I00
sg9
Nsg15
NsbsVlist
p4890
g0
(g1
g2
Ntp4891
Rp4892
(dp4893
g6
Nsg8
I00
sg9
Nsg15
NsbsVjoined
p4894
g0
(g1
g2
Ntp4895
Rp4896
(dp4897
g6
Nsg8
I00
sg9
Nsg15
NsbsVlarge
p4898
g0
(g1
g2
Ntp4899
Rp4900
(dp4901
g6
Nsg8
I00
sg9
Nsg15
NsbsVdinosaur
p4902
g0
(g1
g2
Ntp4903
Rp4904
(dp4905
g6
Nsg8
I00
sg9
Nsg15
NsbsValong.
p4906
g0
(g1
g2
Ntp4907
Rp4908
(dp4909
g6
Nsg8
I00
sg9
Nsg15
NsbsVsmall
p4910
g0
(g1
g2
Ntp4911
Rp4912
(dp4913
g6
Nsg8
I00
sg9
Nsg15
NsbsV20th
p4914
g0
(g1
g2
Ntp4915
Rp4916
(dp4917
g6
Nsg8
I00
sg9
Nsg15
NsbsVneighborhood
p4918
g0
(g1
g2
Ntp4919
Rp4920
(dp4921
g6
Nsg8
I00
sg9
Nsg15
NsbsVten
p4922
g0
(g1
g2
Ntp4923
Rp4924
(dp4925
g6
Nsg8
I00
sg9
Nsg15
Nsbsg1625
g0
(g1
g2
Ntp4926
Rp4927
(dp4928
g6
Nsg8
I00
sg9
Nsg15
NsbsVActually
p4929
g0
(g1
g2
Ntp4930
Rp4931
(dp4932
g6
Nsg8
I00
sg9
Nsg15
NsbsVpast
p4933
g0
(g1
g2
Ntp4934
Rp4935
(dp4936
g6
Nsg8
I00
sg9
Nsg15
NsbsVburger
p4937
g0
(g1
g2
Ntp4938
Rp4939
(dp4940
g6
Nsg8
I00
sg9
Nsg15
NsbsVrate
p4941
g0
(g1
g2
Ntp4942
Rp4943
(dp4944
g6
Nsg8
I00
sg9
Nsg15
NsbsVdesign
p4945
g0
(g1
g2
Ntp4946
Rp4947
(dp4948
g6
Nsg8
I00
sg9
Nsg15
NsbsVpass
p4949
g0
(g1
g2
Ntp4950
Rp4951
(dp4952
g6
Nsg8
I00
sg9
Nsg15
NsbsVfurther
p4953
g0
(g1
g2
Ntp4954
Rp4955
(dp4956
g6
Nsg8
I00
sg9
Nsg15
NsbsVcasual
p4957
g0
(g1
g2
Ntp4958
Rp4959
(dp4960
g6
Nsg8
I00
sg9
Nsg15
NsbsVtrick
p4961
g0
(g1
g2
Ntp4962
Rp4963
(dp4964
g6
Nsg8
I00
sg9
Nsg15
NsbsVwhat
p4965
g0
(g1
g2
Ntp4966
Rp4967
(dp4968
g6
Nsg8
I00
sg9
Nsg15
NsbsVunattached
p4969
g0
(g1
g2
Ntp4970
Rp4971
(dp4972
g6
Nsg8
I00
sg9
Nsg15
NsbsVhim.
p4973
g0
(g1
g2
Ntp4974
Rp4975
(dp4976
g6
Nsg8
I00
sg9
Nsg15
NsbsVpublic
p4977
g0
(g1
g2
Ntp4978
Rp4979
(dp4980
g6
Nsg8
I00
sg9
Nsg15
NsbsVArena
p4981
g0
(g1
g2
Ntp4982
Rp4983
(dp4984
g6
Nsg8
I00
sg9
Nsg15
NsbsVPull
p4985
g0
(g1
g2
Ntp4986
Rp4987
(dp4988
g6
Nsg8
I00
sg9
Nsg15
NsbsVfull
p4989
g0
(g1
g2
Ntp4990
Rp4991
(dp4992
g6
Nsg8
I00
sg9
Nsg15
NsbsVAsked
p4993
g0
(g1
g2
Ntp4994
Rp4995
(dp4996
g6
Nsg8
I00
sg9
Nsg15
NsbsVdiapers
p4997
g0
(g1
g2
Ntp4998
Rp4999
(dp5000
g6
Nsg8
I00
sg9
Nsg15
NsbsVGim
p5001
g0
(g1
g2
Ntp5002
Rp5003
(dp5004
g6
Nsg8
I00
sg9
Nsg15
NsbsVbuy
p5005
g0
(g1
g2
Ntp5006
Rp5007
(dp5008
g6
Nsg8
I00
sg9
Nsg15
NsbsVstrong
p5009
g0
(g1
g2
Ntp5010
Rp5011
(dp5012
g6
Nsg8
I00
sg9
Nsg15
NsbsVslapping
p5013
g0
(g1
g2
Ntp5014
Rp5015
(dp5016
g6
Nsg8
I00
sg9
Nsg15
NsbsVSilence
p5017
g0
(g1
g2
Ntp5018
Rp5019
(dp5020
g6
Nsg8
I00
sg9
Nsg15
NsbsVahead
p5021
g0
(g1
g2
Ntp5022
Rp5023
(dp5024
g6
Nsg8
I00
sg9
Nsg15
NsbsVLaughs
p5025
g0
(g1
g2
Ntp5026
Rp5027
(dp5028
g6
Nsg8
I00
sg9
Nsg15
NsbsVamount
p5029
g0
(g1
g2
Ntp5030
Rp5031
(dp5032
g6
Nsg8
I00
sg9
Nsg15
NsbsVhorrified
p5033
g0
(g1
g2
Ntp5034
Rp5035
(dp5036
g6
Nsg8
I00
sg9
Nsg15
Nsbsg365
g0
(g1
g2
Ntp5037
Rp5038
(dp5039
g6
Nsg8
I00
sg9
Nsg15
NsbsVoptions
p5040
g0
(g1
g2
Ntp5041
Rp5042
(dp5043
g6
Nsg8
I00
sg9
Nsg15
NsbsVfamily
p5044
g0
(g1
g2
Ntp5045
Rp5046
(dp5047
g6
Nsg8
I00
sg9
Nsg15
NsbsVask
p5048
g0
(g1
g2
Ntp5049
Rp5050
(dp5051
g6
Nsg8
I00
sg9
Nsg15
NsbsVknow.
p5052
g0
(g1
g2
Ntp5053
Rp5054
(dp5055
g6
Nsg8
I00
sg9
Nsg15
NsbsVsister.
p5056
g0
(g1
g2
Ntp5057
Rp5058
(dp5059
g6
Nsg8
I00
sg9
Nsg15
NsbsVeye
p5060
g0
(g1
g2
Ntp5061
Rp5062
(dp5063
g6
Nsg8
I00
sg9
Nsg15
NsbsVtakes
p5064
g0
(g1
g2
Ntp5065
Rp5066
(dp5067
g6
Nsg8
I00
sg9
Nsg15
NsbsVpregnant.
p5068
g0
(g1
g2
Ntp5069
Rp5070
(dp5071
g6
Nsg8
I00
sg9
Nsg15
NsbsVtwo
p5072
g0
(g1
g2
Ntp5073
Rp5074
(dp5075
g6
Nsg8
I00
sg9
Nsg15
NsbsVGod.
p5076
g0
(g1
g2
Ntp5077
Rp5078
(dp5079
g6
Nsg8
I00
sg9
Nsg15
NsbsVDumpster
p5080
g0
(g1
g2
Ntp5081
Rp5082
(dp5083
g6
Nsg8
I00
sg9
Nsg15
NsbsVtaken
p5084
g0
(g1
g2
Ntp5085
Rp5086
(dp5087
g6
Nsg8
I00
sg9
Nsg15
NsbsVinjury
p5088
g0
(g1
g2
Ntp5089
Rp5090
(dp5091
g6
Nsg8
I00
sg9
Nsg15
NsbsVmore
p5092
g0
(g1
g2
Ntp5093
Rp5094
(dp5095
g6
Nsg8
I00
sg9
Nsg15
NsbsVteen
p5096
g0
(g1
g2
Ntp5097
Rp5098
(dp5099
g6
Nsg8
I00
sg9
Nsg15
Nsbsg549
g0
(g1
g2
Ntp5100
Rp5101
(dp5102
g6
Nsg8
I00
sg9
Nsg15
NsbsVknows
p5103
g0
(g1
g2
Ntp5104
Rp5105
(dp5106
g6
Nsg8
I00
sg9
Nsg15
NsbsVKennedy
p5107
g0
(g1
g2
Ntp5108
Rp5109
(dp5110
g6
Nsg8
I00
sg9
Nsg15
NsbsVperson.
p5111
g0
(g1
g2
Ntp5112
Rp5113
(dp5114
g6
Nsg8
I00
sg9
Nsg15
NsbsVexcuse
p5115
g0
(g1
g2
Ntp5116
Rp5117
(dp5118
g6
Nsg8
I00
sg9
Nsg15
NsbsVAmerican
p5119
g0
(g1
g2
Ntp5120
Rp5121
(dp5122
g6
Nsg8
I00
sg9
Nsg15
NsbsVmarriage.
p5123
g0
(g1
g2
Ntp5124
Rp5125
(dp5126
g6
Nsg8
I00
sg9
Nsg15
NsbsVSo
p5127
g0
(g1
g2
Ntp5128
Rp5129
(dp5130
g6
Nsg8
I00
sg9
Nsg15
NsbsVstick
p5131
g0
(g1
g2
Ntp5132
Rp5133
(dp5134
g6
Nsg8
I00
sg9
Nsg15
NsbsVinjuries.
p5135
g0
(g1
g2
Ntp5136
Rp5137
(dp5138
g6
Nsg8
I00
sg9
Nsg15
NsbsVFound
p5139
g0
(g1
g2
Ntp5140
Rp5141
(dp5142
g6
Nsg8
I00
sg9
Nsg15
NsbsVhurry
p5143
g0
(g1
g2
Ntp5144
Rp5145
(dp5146
g6
Nsg8
I00
sg9
Nsg15
NsbsVglad
p5147
g0
(g1
g2
Ntp5148
Rp5149
(dp5150
g6
Nsg8
I00
sg9
Nsg15
NsbsVcouples
p5151
g0
(g1
g2
Ntp5152
Rp5153
(dp5154
g6
Nsg8
I00
sg9
Nsg15
NsbsVhour
p5155
g0
(g1
g2
Ntp5156
Rp5157
(dp5158
g6
Nsg8
I00
sg9
Nsg15
NsbsVrecall
p5159
g0
(g1
g2
Ntp5160
Rp5161
(dp5162
g6
Nsg8
I00
sg9
Nsg15
Nsbsg585
g0
(g1
g2
Ntp5163
Rp5164
(dp5165
g6
Nsg8
I00
sg9
Nsg15
NsbsVden
p5166
g0
(g1
g2
Ntp5167
Rp5168
(dp5169
g6
Nsg8
I00
sg9
Nsg15
NsbsVlearn
p5170
g0
(g1
g2
Ntp5171
Rp5172
(dp5173
g6
Nsg8
I00
sg9
Nsg15
NsbsVabandon
p5174
g0
(g1
g2
Ntp5175
Rp5176
(dp5177
g6
Nsg8
I00
sg9
Nsg15
NsbsVmale
p5178
g0
(g1
g2
Ntp5179
Rp5180
(dp5181
g6
Nsg8
I00
sg9
Nsg15
NsbsVTomorrow
p5182
g0
(g1
g2
Ntp5183
Rp5184
(dp5185
g6
Nsg8
I00
sg9
Nsg15
NsbsVhistory
p5186
g0
(g1
g2
Ntp5187
Rp5188
(dp5189
g6
Nsg8
I00
sg9
Nsg15
NsbsVbeautiful
p5190
g0
(g1
g2
Ntp5191
Rp5192
(dp5193
g6
Nsg8
I00
sg9
Nsg15
NsbsVembarrassing
p5194
g0
(g1
g2
Ntp5195
Rp5196
(dp5197
g6
Nsg8
I00
sg9
Nsg15
NsbsVShmosby
p5198
g0
(g1
g2
Ntp5199
Rp5200
(dp5201
g6
Nsg8
I00
sg9
Nsg15
NsbsVscreenwriter.
p5202
g0
(g1
g2
Ntp5203
Rp5204
(dp5205
g6
Nsg8
I00
sg9
Nsg15
NsbsVNora
p5206
g0
(g1
g2
Ntp5207
Rp5208
(dp5209
g6
Nsg8
I00
sg9
Nsg15
NsbsVhours.
p5210
g0
(g1
g2
Ntp5211
Rp5212
(dp5213
g6
Nsg8
I00
sg9
Nsg15
NsbsVplan.
p5214
g0
(g1
g2
Ntp5215
Rp5216
(dp5217
g6
Nsg8
I00
sg9
Nsg15
NsbsVdress
p5218
g0
(g1
g2
Ntp5219
Rp5220
(dp5221
g6
Nsg8
I00
sg9
Nsg15
NsbsVAlda
p5222
g0
(g1
g2
Ntp5223
Rp5224
(dp5225
g6
Nsg8
I00
sg9
Nsg15
NsbsV!
p5226
g0
(g1
g2
Ntp5227
Rp5228
(dp5229
g6
Nsg8
I00
sg9
Nsg15
NsbsVhuge
p5230
g0
(g1
g2
Ntp5231
Rp5232
(dp5233
g6
Nsg8
I00
sg9
Nsg15
NsbsVsiren
p5234
g0
(g1
g2
Ntp5235
Rp5236
(dp5237
g6
Nsg8
I00
sg9
Nsg15
NsbsVsits
p5238
g0
(g1
g2
Ntp5239
Rp5240
(dp5241
g6
Nsg8
I00
sg9
Nsg15
NsbsVcourt
p5242
g0
(g1
g2
Ntp5243
Rp5244
(dp5245
g6
Nsg8
I00
sg9
Nsg15
NsbsVrather
p5246
g0
(g1
g2
Ntp5247
Rp5248
(dp5249
g6
Nsg8
I00
sg9
Nsg15
NsbsVbreaking
p5250
g0
(g1
g2
Ntp5251
Rp5252
(dp5253
g6
Nsg8
I00
sg9
Nsg15
NsbsVoccasionally
p5254
g0
(g1
g2
Ntp5255
Rp5256
(dp5257
g6
Nsg8
I00
sg9
Nsg15
NsbsVnon-negotiable
p5258
g0
(g1
g2
Ntp5259
Rp5260
(dp5261
g6
Nsg8
I00
sg9
Nsg15
NsbsVDon
p5262
g0
(g1
g2
Ntp5263
Rp5264
(dp5265
g6
Nsg8
I00
sg9
Nsg15
NsbsVtried
p5266
g0
(g1
g2
Ntp5267
Rp5268
(dp5269
g6
Nsg8
I00
sg9
Nsg15
NsbsVnumber.
p5270
g0
(g1
g2
Ntp5271
Rp5272
(dp5273
g6
Nsg8
I00
sg9
Nsg15
NsbsVadvice
p5274
g0
(g1
g2
Ntp5275
Rp5276
(dp5277
g6
Nsg8
I00
sg9
Nsg15
NsbsVList
p5278
g0
(g1
g2
Ntp5279
Rp5280
(dp5281
g6
Nsg8
I00
sg9
Nsg15
NsbsVplane
p5282
g0
(g1
g2
Ntp5283
Rp5284
(dp5285
g6
Nsg8
I00
sg9
Nsg15
NsbsVcoming
p5286
g0
(g1
g2
Ntp5287
Rp5288
(dp5289
g6
Nsg8
I00
sg9
Nsg15
NsbsVa
p5290
g0
(g1
g2
Ntp5291
Rp5292
(dp5293
g6
Nsg8
I00
sg9
Nsg15
NsbsVcrowded
p5294
g0
(g1
g2
Ntp5295
Rp5296
(dp5297
g6
Nsg8
I00
sg9
Nsg15
NsbsVreasons.Sometimes
p5298
g0
(g1
g2
Ntp5299
Rp5300
(dp5301
g6
Nsg8
I00
sg9
Nsg15
NsbsVperhaps
p5302
g0
(g1
g2
Ntp5303
Rp5304
(dp5305
g6
Nsg8
I00
sg9
Nsg15
NsbsVshore
p5306
g0
(g1
g2
Ntp5307
Rp5308
(dp5309
g6
Nsg8
I00
sg9
Nsg15
NsbsVLeskies
p5310
g0
(g1
g2
Ntp5311
Rp5312
(dp5313
g6
Nsg8
I00
sg9
Nsg15
NsbsVpleasure
p5314
g0
(g1
g2
Ntp5315
Rp5316
(dp5317
g6
Nsg8
I00
sg9
Nsg15
NsbsVplaying
p5318
g0
(g1
g2
Ntp5319
Rp5320
(dp5321
g6
Nsg8
I00
sg9
Nsg15
NsbsVWhat
p5322
g0
(g1
g2
Ntp5323
Rp5324
(dp5325
g6
Nsg8
I00
sg9
Nsg15
NsbsVhelp
p5326
g0
(g1
g2
Ntp5327
Rp5328
(dp5329
g6
Nsg8
I00
sg9
Nsg15
NsbsVInteresting
p5330
g0
(g1
g2
Ntp5331
Rp5332
(dp5333
g6
Nsg8
I00
sg9
Nsg15
NsbsVsoon
p5334
g0
(g1
g2
Ntp5335
Rp5336
(dp5337
g6
Nsg8
I00
sg9
Nsg15
NsbsVattitude
p5338
g0
(g1
g2
Ntp5339
Rp5340
(dp5341
g6
Nsg8
I00
sg9
Nsg15
NsbsVthrough
p5342
g0
(g1
g2
Ntp5343
Rp5344
(dp5345
g6
Nsg8
I00
sg9
Nsg15
NsbsVsame
p5346
g0
(g1
g2
Ntp5347
Rp5348
(dp5349
g6
Nsg8
I00
sg9
Nsg15
NsbsVhell
p5350
g0
(g1
g2
Ntp5351
Rp5352
(dp5353
g6
Nsg8
I00
sg9
Nsg15
NsbsVbrie
p5354
g0
(g1
g2
Ntp5355
Rp5356
(dp5357
g6
Nsg8
I00
sg9
Nsg15
NsbsV25
p5358
g0
(g1
g2
Ntp5359
Rp5360
(dp5361
g6
Nsg8
I00
sg9
Nsg15
NsbsVAnyhoo
p5362
g0
(g1
g2
Ntp5363
Rp5364
(dp5365
g6
Nsg8
I00
sg9
Nsg15
NsbsV20
p5366
g0
(g1
g2
Ntp5367
Rp5368
(dp5369
g6
Nsg8
I00
sg9
Nsg15
NsbsV22
p5370
g0
(g1
g2
Ntp5371
Rp5372
(dp5373
g6
Nsg8
I00
sg9
Nsg15
NsbsValready.
p5374
g0
(g1
g2
Ntp5375
Rp5376
(dp5377
g6
Nsg8
I00
sg9
Nsg15
Nsbsg373
g0
(g1
g2
Ntp5378
Rp5379
(dp5380
g6
Nsg8
I00
sg9
Nsg15
NsbsVlate
p5381
g0
(g1
g2
Ntp5382
Rp5383
(dp5384
g6
Nsg8
I00
sg9
Nsg15
NsbsVtruth.
p5385
g0
(g1
g2
Ntp5386
Rp5387
(dp5388
g6
Nsg8
I00
sg9
Nsg15
NsbsVJersey
p5389
g0
(g1
g2
Ntp5390
Rp5391
(dp5392
g6
Nsg8
I00
sg9
Nsg15
NsbsVmight
p5393
g0
(g1
g2
Ntp5394
Rp5395
(dp5396
g6
Nsg8
I00
sg9
Nsg15
NsbsVit.
p5397
g0
(g1
g2
Ntp5398
Rp5399
(dp5400
g6
Nsg8
I00
sg9
Nsg15
NsbsVsomeone
p5401
g0
(g1
g2
Ntp5402
Rp5403
(dp5404
g6
Nsg8
I00
sg9
Nsg15
NsbsVsomebody
p5405
g0
(g1
g2
Ntp5406
Rp5407
(dp5408
g6
Nsg8
I00
sg9
Nsg15
NsbsVvomit
p5409
g0
(g1
g2
Ntp5410
Rp5411
(dp5412
g6
Nsg8
I00
sg9
Nsg15
NsbsVattending
p5413
g0
(g1
g2
Ntp5414
Rp5415
(dp5416
g6
Nsg8
I00
sg9
Nsg15
Nsbsg2933
g0
(g1
g2
Ntp5417
Rp5418
(dp5419
g6
Nsg8
I00
sg9
Nsg15
NsbsVmystery
p5420
g0
(g1
g2
Ntp5421
Rp5422
(dp5423
g6
Nsg8
I00
sg9
Nsg15
NsbsVgets
p5424
g0
(g1
g2
Ntp5425
Rp5426
(dp5427
g6
Nsg8
I00
sg9
Nsg15
NsbsVLiar
p5428
g0
(g1
g2
Ntp5429
Rp5430
(dp5431
g6
Nsg8
I00
sg9
Nsg15
NsbsVwash
p5432
g0
(g1
g2
Ntp5433
Rp5434
(dp5435
g6
Nsg8
I00
sg9
Nsg15
NsbsValways
p5436
g0
(g1
g2
Ntp5437
Rp5438
(dp5439
g6
Nsg8
I00
sg9
Nsg15
NsbsVtear
p5440
g0
(g1
g2
Ntp5441
Rp5442
(dp5443
g6
Nsg8
I00
sg9
Nsg15
NsbsVturns
p5444
g0
(g1
g2
Ntp5445
Rp5446
(dp5447
g6
Nsg8
I00
sg9
Nsg15
NsbsVfound
p5448
g0
(g1
g2
Ntp5449
Rp5450
(dp5451
g6
Nsg8
I00
sg9
Nsg15
NsbsVweek
p5452
g0
(g1
g2
Ntp5453
Rp5454
(dp5455
g6
Nsg8
I00
sg9
Nsg15
NsbsVYankee.
p5456
g0
(g1
g2
Ntp5457
Rp5458
(dp5459
g6
Nsg8
I00
sg9
Nsg15
NsbsVclams
p5460
g0
(g1
g2
Ntp5461
Rp5462
(dp5463
g6
Nsg8
I00
sg9
Nsg15
NsbsVEnd
p5464
g0
(g1
g2
Ntp5465
Rp5466
(dp5467
g6
Nsg8
I00
sg9
Nsg15
NsbsVupstairs
p5468
g0
(g1
g2
Ntp5469
Rp5470
(dp5471
g6
Nsg8
I00
sg9
Nsg15
NsbsVweight
p5472
g0
(g1
g2
Ntp5473
Rp5474
(dp5475
g6
Nsg8
I00
sg9
Nsg15
NsbsVhouse
p5476
g0
(g1
g2
Ntp5477
Rp5478
(dp5479
g6
Nsg8
I00
sg9
Nsg15
NsbsVhard
p5480
g0
(g1
g2
Ntp5481
Rp5482
(dp5483
g6
Nsg8
I00
sg9
Nsg15
NsbsVhouse.
p5484
g0
(g1
g2
Ntp5485
Rp5486
(dp5487
g6
Nsg8
I00
sg9
Nsg15
NsbsVball
p5488
g0
(g1
g2
Ntp5489
Rp5490
(dp5491
g6
Nsg8
I00
sg9
Nsg15
NsbsVevent
p5492
g0
(g1
g2
Ntp5493
Rp5494
(dp5495
g6
Nsg8
I00
sg9
Nsg15
NsbsVreally
p5496
g0
(g1
g2
Ntp5497
Rp5498
(dp5499
g6
Nsg8
I00
sg9
Nsg15
NsbsVtry
p5500
g0
(g1
g2
Ntp5501
Rp5502
(dp5503
g6
Nsg8
I00
sg9
Nsg15
NsbsVmissed
p5504
g0
(g1
g2
Ntp5505
Rp5506
(dp5507
g6
Nsg8
I00
sg9
Nsg15
NsbsVsince
p5508
g0
(g1
g2
Ntp5509
Rp5510
(dp5511
g6
Nsg8
I00
sg9
Nsg15
NsbsVCoulin
p5512
g0
(g1
g2
Ntp5513
Rp5514
(dp5515
g6
Nsg8
I00
sg9
Nsg15
NsbsVI
p5516
g0
(g1
g2
Ntp5517
Rp5518
(dp5519
g6
Nsg8
I00
sg9
Nsg15
NsbsVreporting
p5520
g0
(g1
g2
Ntp5521
Rp5522
(dp5523
g6
Nsg8
I00
sg9
Nsg15
NsbsV)
p5524
g0
(g1
g2
Ntp5525
Rp5526
(dp5527
g6
g344
sg8
I00
sg9
(dp5528
Vringing
p5529
g0
(g1
g2
Ntp5530
Rp5531
(dp5532
g6
Nsg8
I00
sg9
Nsg15
NsbsVoffice
p5533
g0
(g1
g2
Ntp5534
Rp5535
(dp5536
g6
Nsg8
I00
sg9
Nsg15
NsbsVdance
p5537
g0
(g1
g2
Ntp5538
Rp5539
(dp5540
g6
Nsg8
I00
sg9
Nsg15
Nsbsg4187
g0
(g1
g2
Ntp5541
Rp5542
(dp5543
g6
Nsg8
I00
sg9
Nsg15
NsbsVlaughs
p5544
g0
(g1
g2
Ntp5545
Rp5546
(dp5547
g6
Nsg8
I00
sg9
Nsg15
NsbsVit
p5548
g0
(g1
g2
Ntp5549
Rp5550
(dp5551
g6
Nsg8
I00
sg9
Nsg15
NsbsVsighs
p5552
g0
(g1
g2
Ntp5553
Rp5554
(dp5555
g6
Nsg8
I00
sg9
Nsg15
NsbsVcomputer
p5556
g0
(g1
g2
Ntp5557
Rp5558
(dp5559
g6
Nsg8
I00
sg9
Nsg15
NsbsVwhispering
p5560
g0
(g1
g2
Ntp5561
Rp5562
(dp5563
g6
Nsg8
I00
sg9
Nsg15
NsbsV's
p5564
g0
(g1
g2
Ntp5565
Rp5566
(dp5567
g6
Nsg8
I00
sg9
Nsg15
Nsbsg3496
g0
(g1
g2
Ntp5568
Rp5569
(dp5570
g6
Nsg8
I00
sg9
Nsg15
NsbsVthud
p5571
g0
(g1
g2
Ntp5572
Rp5573
(dp5574
g6
Nsg8
I00
sg9
Nsg15
NsbsVLily
p5575
g0
(g1
g2
Ntp5576
Rp5577
(dp5578
g6
Nsg8
I00
sg9
Nsg15
Nsbsg2384
g0
(g1
g2
Ntp5579
Rp5580
(dp5581
g6
Nsg8
I00
sg9
Nsg15
Nsbsg1252
g0
(g1
g2
Ntp5582
Rp5583
(dp5584
g6
Nsg8
I00
sg9
Nsg15
NsbsVgasps
p5585
g0
(g1
g2
Ntp5586
Rp5587
(dp5588
g6
Nsg8
I00
sg9
Nsg15
Nsbsg3790
g0
(g1
g2
Ntp5589
Rp5590
(dp5591
g6
Nsg8
I00
sg9
Nsg15
NsbsVaccent
p5592
g0
(g1
g2
Ntp5593
Rp5594
(dp5595
g6
Nsg8
I00
sg9
Nsg15
NsbsVbacks
p5596
g0
(g1
g2
Ntp5597
Rp5598
(dp5599
g6
Nsg8
I00
sg9
Nsg15
NsbsV.
p5600
g0
(g1
g2
Ntp5601
Rp5602
(dp5603
g6
Nsg8
I00
sg9
Nsg15
NsbsVPhone
p5604
g0
(g1
g2
Ntp5605
Rp5606
(dp5607
g6
Nsg8
I00
sg9
Nsg15
NsbsVslams
p5608
g0
(g1
g2
Ntp5609
Rp5610
(dp5611
g6
Nsg8
I00
sg9
Nsg15
NsbsV2030
p5612
g0
(g1
g2
Ntp5613
Rp5614
(dp5615
g6
Nsg8
I01
sg9
Nsg15
Nsbsg2416
g0
(g1
g2
Ntp5616
Rp5617
(dp5618
g6
Nsg8
I00
sg9
Nsg15
Nsbsg4736
g0
(g1
g2
Ntp5619
Rp5620
(dp5621
g6
Nsg8
I00
sg9
Nsg15
NsbsVclicks
p5622
g0
(g1
g2
Ntp5623
Rp5624
(dp5625
g6
Nsg8
I00
sg9
Nsg15
NsbsV...
p5626
g0
(g1
g2
Ntp5627
Rp5628
(dp5629
g6
Nsg8
I00
sg9
Nsg15
NsbsVhead
p5630
g0
(g1
g2
Ntp5631
Rp5632
(dp5633
g6
Nsg8
I00
sg9
Nsg15
NsbsVdoor
p5634
g0
(g1
g2
Ntp5635
Rp5636
(dp5637
g6
Nsg8
I00
sg9
Nsg15
Nsbsg3125
g0
(g1
g2
Ntp5638
Rp5639
(dp5640
g6
Nsg8
I00
sg9
Nsg15
NsbsVLeaves
p5641
g0
(g1
g2
Ntp5642
Rp5643
(dp5644
g6
Nsg8
I00
sg9
Nsg15
NsbsVscene
p5645
g0
(g1
g2
Ntp5646
Rp5647
(dp5648
g6
Nsg8
I00
sg9
Nsg15
NsbsVphone
p5649
g0
(g1
g2
Ntp5650
Rp5651
(dp5652
g6
Nsg8
I00
sg9
Nsg15
NsbsVgame
p5653
g0
(g1
g2
Ntp5654
Rp5655
(dp5656
g6
Nsg8
I00
sg9
Nsg15
Nsbsg1523
g0
(g1
g2
Ntp5657
Rp5658
(dp5659
g6
Nsg8
I00
sg9
Nsg15
NsbsVchanting
p5660
g0
(g1
g2
Ntp5661
Rp5662
(dp5663
g6
Nsg8
I00
sg9
Nsg15
NsbsVstudent
p5664
g0
(g1
g2
Ntp5665
Rp5666
(dp5667
g6
Nsg8
I00
sg9
Nsg15
NsbsVSubtitle
p5668
g0
(g1
g2
Ntp5669
Rp5670
(dp5671
g6
Nsg8
I00
sg9
Nsg15
NsbsVshoulder
p5672
g0
(g1
g2
Ntp5673
Rp5674
(dp5675
g6
Nsg8
I00
sg9
Nsg15
NsbsVoff
p5676
g0
(g1
g2
Ntp5677
Rp5678
(dp5679
g6
Nsg8
I00
sg9
Nsg15
NsbsVwhispers
p5680
g0
(g1
g2
Ntp5681
Rp5682
(dp5683
g6
Nsg8
I00
sg9
Nsg15
Nsbsg2718
g0
(g1
g2
Ntp5684
Rp5685
(dp5686
g6
Nsg8
I00
sg9
Nsg15
NsbsVlater
p5687
g0
(g1
g2
Ntp5688
Rp5689
(dp5690
g6
Nsg8
I00
sg9
Nsg15
NsbsVTed
p5691
g0
(g1
g2
Ntp5692
Rp5693
(dp5694
g6
Nsg8
I00
sg9
Nsg15
NsbsVup
p5695
g0
(g1
g2
Ntp5696
Rp5697
(dp5698
g6
Nsg8
I00
sg9
Nsg15
Nsbsg853
g0
(g1
g2
Ntp5699
Rp5700
(dp5701
g6
Nsg8
I00
sg9
Nsg15
NsbsVchuckles
p5702
g0
(g1
g2
Ntp5703
Rp5704
(dp5705
g6
Nsg8
I00
sg9
Nsg15
NsbsVcheer
p5706
g0
(g1
g2
Ntp5707
Rp5708
(dp5709
g6
Nsg8
I00
sg9
Nsg15
Nsbsg4003
g0
(g1
g2
Ntp5710
Rp5711
(dp5712
g6
Nsg8
I00
sg9
Nsg15
NsbsVlaughing
p5713
g0
(g1
g2
Ntp5714
Rp5715
(dp5716
g6
Nsg8
I00
sg9
Nsg15
NsbsVreception
p5717
g0
(g1
g2
Ntp5718
Rp5719
(dp5720
g6
Nsg8
I00
sg9
Nsg15
NsbsVtime
p5721
g0
(g1
g2
Ntp5722
Rp5723
(dp5724
g6
Nsg8
I00
sg9
Nsg15
NsbsVwhimpers
p5725
g0
(g1
g2
Ntp5726
Rp5727
(dp5728
g6
Nsg8
I00
sg9
Nsg15
NsbsVstammers
p5729
g0
(g1
g2
Ntp5730
Rp5731
(dp5732
g6
Nsg8
I00
sg9
Nsg15
NsbsVapproaching
p5733
g0
(g1
g2
Ntp5734
Rp5735
(dp5736
g6
Nsg8
I00
sg9
Nsg15
Nsbssg15
NsbsVconfidence
p5737
g0
(g1
g2
Ntp5738
Rp5739
(dp5740
g6
Nsg8
I00
sg9
Nsg15
NsbsVstory
p5741
g0
(g1
g2
Ntp5742
Rp5743
(dp5744
g6
Nsg8
I00
sg9
Nsg15
NsbsVreason
p5745
g0
(g1
g2
Ntp5746
Rp5747
(dp5748
g6
Nsg8
I00
sg9
Nsg15
NsbsVimagine
p5749
g0
(g1
g2
Ntp5750
Rp5751
(dp5752
g6
Nsg8
I00
sg9
Nsg15
NsbsVput
p5753
g0
(g1
g2
Ntp5754
Rp5755
(dp5756
g6
Nsg8
I00
sg9
Nsg15
NsbsVheads
p5757
g0
(g1
g2
Ntp5758
Rp5759
(dp5760
g6
Nsg8
I00
sg9
Nsg15
NsbsVteach
p5761
g0
(g1
g2
Ntp5762
Rp5763
(dp5764
g6
Nsg8
I00
sg9
Nsg15
NsbsVearliest
p5765
g0
(g1
g2
Ntp5766
Rp5767
(dp5768
g6
Nsg8
I00
sg9
Nsg15
NsbsVPeter.
p5769
g0
(g1
g2
Ntp5770
Rp5771
(dp5772
g6
Nsg8
I00
sg9
Nsg15
NsbsVfeel
p5773
g0
(g1
g2
Ntp5774
Rp5775
(dp5776
g6
Nsg8
I00
sg9
Nsg15
NsbsVnumber
p5777
g0
(g1
g2
Ntp5778
Rp5779
(dp5780
g6
Nsg8
I00
sg9
Nsg15
NsbsVReverend
p5781
g0
(g1
g2
Ntp5782
Rp5783
(dp5784
g6
Nsg8
I00
sg9
Nsg15
NsbsVdone
p5785
g0
(g1
g2
Ntp5786
Rp5787
(dp5788
g6
Nsg8
I00
sg9
Nsg15
NsbsVhangs
p5789
g0
(g1
g2
Ntp5790
Rp5791
(dp5792
g6
Nsg8
I00
sg9
Nsg15
NsbsVmiss
p5793
g0
(g1
g2
Ntp5794
Rp5795
(dp5796
g6
Nsg8
I00
sg9
Nsg15
NsbsVmaple
p5797
g0
(g1
g2
Ntp5798
Rp5799
(dp5800
g6
Nsg8
I00
sg9
Nsg15
NsbsVguess
p5801
g0
(g1
g2
Ntp5802
Rp5803
(dp5804
g6
Nsg8
I00
sg9
Nsg15
NsbsVOkay
p5805
g0
(g1
g2
Ntp5806
Rp5807
(dp5808
g6
Nsg8
I00
sg9
Nsg15
NsbsVguest
p5809
g0
(g1
g2
Ntp5810
Rp5811
(dp5812
g6
Nsg8
I00
sg9
Nsg15
NsbsVleast
p5813
g0
(g1
g2
Ntp5814
Rp5815
(dp5816
g6
Nsg8
I00
sg9
Nsg15
NsbsVwingman
p5817
g0
(g1
g2
Ntp5818
Rp5819
(dp5820
g6
Nsg8
I00
sg9
Nsg15
NsbsVflimsy
p5821
g0
(g1
g2
Ntp5822
Rp5823
(dp5824
g6
Nsg8
I00
sg9
Nsg15
NsbsVwonderful
p5825
g0
(g1
g2
Ntp5826
Rp5827
(dp5828
g6
Nsg8
I00
sg9
Nsg15
NsbsVpassed
p5829
g0
(g1
g2
Ntp5830
Rp5831
(dp5832
g6
Nsg8
I00
sg9
Nsg15
NsbsVmama
p5833
g0
(g1
g2
Ntp5834
Rp5835
(dp5836
g6
Nsg8
I00
sg9
Nsg15
NsbsVhundred
p5837
g0
(g1
g2
Ntp5838
Rp5839
(dp5840
g6
Nsg8
I00
sg9
Nsg15
NsbsVbanana
p5841
g0
(g1
g2
Ntp5842
Rp5843
(dp5844
g6
Nsg8
I00
sg9
Nsg15
NsbsVstore
p5845
g0
(g1
g2
Ntp5846
Rp5847
(dp5848
g6
Nsg8
I00
sg9
Nsg15
NsbsVoption
p5849
g0
(g1
g2
Ntp5850
Rp5851
(dp5852
g6
Nsg8
I00
sg9
Nsg15
NsbsVrelationship
p5853
g0
(g1
g2
Ntp5854
Rp5855
(dp5856
g6
Nsg8
I00
sg9
Nsg15
NsbsVdrapes
p5857
g0
(g1
g2
Ntp5858
Rp5859
(dp5860
g6
Nsg8
I00
sg9
Nsg15
NsbsVhotel
p5861
g0
(g1
g2
Ntp5862
Rp5863
(dp5864
g6
Nsg8
I00
sg9
Nsg15
NsbsVpart
p5865
g0
(g1
g2
Ntp5866
Rp5867
(dp5868
g6
Nsg8
I00
sg9
Nsg15
NsbsVbelieve
p5869
g0
(g1
g2
Ntp5870
Rp5871
(dp5872
g6
Nsg8
I00
sg9
Nsg15
NsbsVstairs
p5873
g0
(g1
g2
Ntp5874
Rp5875
(dp5876
g6
Nsg8
I00
sg9
Nsg15
NsbsVkind
p5877
g0
(g1
g2
Ntp5878
Rp5879
(dp5880
g6
Nsg8
I00
sg9
Nsg15
NsbsVNeil
p5881
g0
(g1
g2
Ntp5882
Rp5883
(dp5884
g6
Nsg8
I00
sg9
Nsg15
NsbsVgotten
p5885
g0
(g1
g2
Ntp5886
Rp5887
(dp5888
g6
Nsg8
I00
sg9
Nsg15
NsbsVovercompensating
p5889
g0
(g1
g2
Ntp5890
Rp5891
(dp5892
g6
Nsg8
I00
sg9
Nsg15
NsbsVarchitect
p5893
g0
(g1
g2
Ntp5894
Rp5895
(dp5896
g6
Nsg8
I00
sg9
Nsg15
NsbsVsupposed
p5897
g0
(g1
g2
Ntp5898
Rp5899
(dp5900
g6
Nsg8
I00
sg9
Nsg15
NsbsVinsulted
p5901
g0
(g1
g2
Ntp5902
Rp5903
(dp5904
g6
Nsg8
I00
sg9
Nsg15
NsbsVhead.
p5905
g0
(g1
g2
Ntp5906
Rp5907
(dp5908
g6
Nsg8
I00
sg9
Nsg15
NsbsVSniffy
p5909
g0
(g1
g2
Ntp5910
Rp5911
(dp5912
g6
Nsg8
I00
sg9
Nsg15
NsbsVGod
p5913
g0
(g1
g2
Ntp5914
Rp5915
(dp5916
g6
Nsg8
I00
sg9
Nsg15
NsbsVmagical
p5917
g0
(g1
g2
Ntp5918
Rp5919
(dp5920
g6
Nsg8
I00
sg9
Nsg15
NsbsVGot
p5921
g0
(g1
g2
Ntp5922
Rp5923
(dp5924
g6
Nsg8
I00
sg9
Nsg15
NsbsVsell
p5925
g0
(g1
g2
Ntp5926
Rp5927
(dp5928
g6
Nsg8
I00
sg9
Nsg15
NsbsVlie
p5929
g0
(g1
g2
Ntp5930
Rp5931
(dp5932
g6
Nsg8
I00
sg9
Nsg15
NsbsVnights
p5933
g0
(g1
g2
Ntp5934
Rp5935
(dp5936
g6
Nsg8
I00
sg9
Nsg15
NsbsVfirst.
p5937
g0
(g1
g2
Ntp5938
Rp5939
(dp5940
g6
Nsg8
I00
sg9
Nsg15
NsbsVdancing
p5941
g0
(g1
g2
Ntp5942
Rp5943
(dp5944
g6
Nsg8
I00
sg9
Nsg15
NsbsVcheck
p5945
g0
(g1
g2
Ntp5946
Rp5947
(dp5948
g6
Nsg8
I00
sg9
Nsg15
NsbsValso
p5949
g0
(g1
g2
Ntp5950
Rp5951
(dp5952
g6
Nsg8
I00
sg9
Nsg15
NsbsVplay
p5953
g0
(g1
g2
Ntp5954
Rp5955
(dp5956
g6
Nsg8
I00
sg9
Nsg15
NsbsVGo.
p5957
g0
(g1
g2
Ntp5958
Rp5959
(dp5960
g6
Nsg8
I00
sg9
Nsg15
NsbsVoft
p5961
g0
(g1
g2
Ntp5962
Rp5963
(dp5964
g6
Nsg8
I00
sg9
Nsg15
NsbsVsingles
p5965
g0
(g1
g2
Ntp5966
Rp5967
(dp5968
g6
Nsg8
I00
sg9
Nsg15
NsbsVquote
p5969
g0
(g1
g2
Ntp5970
Rp5971
(dp5972
g6
Nsg8
I00
sg9
Nsg15
NsbsVmost
p5973
g0
(g1
g2
Ntp5974
Rp5975
(dp5976
g6
Nsg8
I00
sg9
Nsg15
NsbsVplan
p5977
g0
(g1
g2
Ntp5978
Rp5979
(dp5980
g6
Nsg8
I00
sg9
Nsg15
NsbsVeaten
p5981
g0
(g1
g2
Ntp5982
Rp5983
(dp5984
g6
Nsg8
I00
sg9
Nsg15
NsbsVnothing
p5985
g0
(g1
g2
Ntp5986
Rp5987
(dp5988
g6
Nsg8
I00
sg9
Nsg15
NsbsVThe
p5989
g0
(g1
g2
Ntp5990
Rp5991
(dp5992
g6
Nsg8
I00
sg9
Nsg15
NsbsVwuvs
p5993
g0
(g1
g2
Ntp5994
Rp5995
(dp5996
g6
Nsg8
I00
sg9
Nsg15
NsbsVclear
p5997
g0
(g1
g2
Ntp5998
Rp5999
(dp6000
g6
Nsg8
I00
sg9
Nsg15
NsbsVsometimes
p6001
g0
(g1
g2
Ntp6002
Rp6003
(dp6004
g6
Nsg8
I00
sg9
Nsg15
NsbsVcover
p6005
g0
(g1
g2
Ntp6006
Rp6007
(dp6008
g6
Nsg8
I00
sg9
Nsg15
NsbsVlying
p6009
g0
(g1
g2
Ntp6010
Rp6011
(dp6012
g6
Nsg8
I00
sg9
Nsg15
NsbsV'aw
p6013
g0
(g1
g2
Ntp6014
Rp6015
(dp6016
g6
Nsg8
I00
sg9
Nsg15
NsbsVreporter.
p6017
g0
(g1
g2
Ntp6018
Rp6019
(dp6020
g6
Nsg8
I00
sg9
Nsg15
NsbsVHad
p6021
g0
(g1
g2
Ntp6022
Rp6023
(dp6024
g6
Nsg8
I00
sg9
Nsg15
NsbsVfine
p6025
g0
(g1
g2
Ntp6026
Rp6027
(dp6028
g6
Nsg8
I00
sg9
Nsg15
NsbsVfind
p6029
g0
(g1
g2
Ntp6030
Rp6031
(dp6032
g6
Nsg8
I00
sg9
Nsg15
NsbsVcell
p6033
g0
(g1
g2
Ntp6034
Rp6035
(dp6036
g6
Nsg8
I00
sg9
Nsg15
NsbsVconvinced
p6037
g0
(g1
g2
Ntp6038
Rp6039
(dp6040
g6
Nsg8
I00
sg9
Nsg15
NsbsVwrites
p6041
g0
(g1
g2
Ntp6042
Rp6043
(dp6044
g6
Nsg8
I00
sg9
Nsg15
NsbsVMosley.
p6045
g0
(g1
g2
Ntp6046
Rp6047
(dp6048
g6
Nsg8
I00
sg9
Nsg15
NsbsVpretty
p6049
g0
(g1
g2
Ntp6050
Rp6051
(dp6052
g6
Nsg8
I00
sg9
Nsg15
NsbsVPooh
p6053
g0
(g1
g2
Ntp6054
Rp6055
(dp6056
g6
Nsg8
I00
sg9
Nsg15
NsbsVGuys
p6057
g0
(g1
g2
Ntp6058
Rp6059
(dp6060
g6
Nsg8
I00
sg9
Nsg15
NsbsVaccurate
p6061
g0
(g1
g2
Ntp6062
Rp6063
(dp6064
g6
Nsg8
I00
sg9
Nsg15
NsbsVSolidarity
p6065
g0
(g1
g2
Ntp6066
Rp6067
(dp6068
g6
Nsg8
I00
sg9
Nsg15
NsbsVhis
p6069
g0
(g1
g2
Ntp6070
Rp6071
(dp6072
g6
Nsg8
I00
sg9
Nsg15
NsbsVhit
p6073
g0
(g1
g2
Ntp6074
Rp6075
(dp6076
g6
Nsg8
I00
sg9
Nsg15
NsbsVWife
p6077
g0
(g1
g2
Ntp6078
Rp6079
(dp6080
g6
Nsg8
I00
sg9
Nsg15
NsbsVbanned
p6081
g0
(g1
g2
Ntp6082
Rp6083
(dp6084
g6
Nsg8
I00
sg9
Nsg15
NsbsVThanksgiving
p6085
g0
(g1
g2
Ntp6086
Rp6087
(dp6088
g6
Nsg8
I00
sg9
Nsg15
NsbsVfamous
p6089
g0
(g1
g2
Ntp6090
Rp6091
(dp6092
g6
Nsg8
I00
sg9
Nsg15
NsbsVbreast
p6093
g0
(g1
g2
Ntp6094
Rp6095
(dp6096
g6
Nsg8
I00
sg9
Nsg15
NsbsVpretending
p6097
g0
(g1
g2
Ntp6098
Rp6099
(dp6100
g6
Nsg8
I00
sg9
Nsg15
NsbsVhim
p6101
g0
(g1
g2
Ntp6102
Rp6103
(dp6104
g6
Nsg8
I00
sg9
Nsg15
NsbsVfianc
p6105
g0
(g1
g2
Ntp6106
Rp6107
(dp6108
g6
Nsg8
I00
sg9
Nsg15
NsbsVTootsie
p6109
g0
(g1
g2
Ntp6110
Rp6111
(dp6112
g6
Nsg8
I00
sg9
Nsg15
NsbsVcartoons
p6113
g0
(g1
g2
Ntp6114
Rp6115
(dp6116
g6
Nsg8
I00
sg9
Nsg15
NsbsVdouble
p6117
g0
(g1
g2
Ntp6118
Rp6119
(dp6120
g6
Nsg8
I00
sg9
Nsg15
NsbsVHell
p6121
g0
(g1
g2
Ntp6122
Rp6123
(dp6124
g6
Nsg8
I00
sg9
Nsg15
NsbsVsnowstorm
p6125
g0
(g1
g2
Ntp6126
Rp6127
(dp6128
g6
Nsg8
I00
sg9
Nsg15
NsbsVwrote
p6129
g0
(g1
g2
Ntp6130
Rp6131
(dp6132
g6
Nsg8
I00
sg9
Nsg15
Nsbsg5733
g0
(g1
g2
Ntp6133
Rp6134
(dp6135
g6
Nsg8
I00
sg9
Nsg15
NsbsVinsane
p6136
g0
(g1
g2
Ntp6137
Rp6138
(dp6139
g6
Nsg8
I00
sg9
Nsg15
NsbsVcity.
p6140
g0
(g1
g2
Ntp6141
Rp6142
(dp6143
g6
Nsg8
I00
sg9
Nsg15
NsbsVFor
p6144
g0
(g1
g2
Ntp6145
Rp6146
(dp6147
g6
Nsg8
I00
sg9
Nsg15
NsbsVarrives
p6148
g0
(g1
g2
Ntp6149
Rp6150
(dp6151
g6
Nsg8
I00
sg9
Nsg15
NsbsVsee
p6152
g0
(g1
g2
Ntp6153
Rp6154
(dp6155
g6
Nsg8
I00
sg9
Nsg15
NsbsVdumb
p6156
g0
(g1
g2
Ntp6157
Rp6158
(dp6159
g6
Nsg8
I00
sg9
Nsg15
NsbsVare
p6160
g0
(g1
g2
Ntp6161
Rp6162
(dp6163
g6
Nsg8
I00
sg9
Nsg15
NsbsVarm
p6164
g0
(g1
g2
Ntp6165
Rp6166
(dp6167
g6
Nsg8
I00
sg9
Nsg15
NsbsVbarn
p6168
g0
(g1
g2
Ntp6169
Rp6170
(dp6171
g6
Nsg8
I00
sg9
Nsg15
NsbsVnailed
p6172
g0
(g1
g2
Ntp6173
Rp6174
(dp6175
g6
Nsg8
I00
sg9
Nsg15
NsbsVPark
p6176
g0
(g1
g2
Ntp6177
Rp6178
(dp6179
g6
Nsg8
I00
sg9
Nsg15
NsbsVyears.
p6180
g0
(g1
g2
Ntp6181
Rp6182
(dp6183
g6
Nsg8
I00
sg9
Nsg15
NsbsVprobably
p6184
g0
(g1
g2
Ntp6185
Rp6186
(dp6187
g6
Nsg8
I00
sg9
Nsg15
NsbsVchampagne
p6188
g0
(g1
g2
Ntp6189
Rp6190
(dp6191
g6
Nsg8
I00
sg9
Nsg15
NsbsVSports-man
p6192
g0
(g1
g2
Ntp6193
Rp6194
(dp6195
g6
Nsg8
I00
sg9
Nsg15
NsbsVsolo
p6196
g0
(g1
g2
Ntp6197
Rp6198
(dp6199
g6
Nsg8
I00
sg9
Nsg15
NsbsVMacLaren
p6200
g0
(g1
g2
Ntp6201
Rp6202
(dp6203
g6
Nsg8
I00
sg9
Nsg15
NsbsVButterworth
p6204
g0
(g1
g2
Ntp6205
Rp6206
(dp6207
g6
Nsg8
I00
sg9
Nsg15
NsbsVmissing
p6208
g0
(g1
g2
Ntp6209
Rp6210
(dp6211
g6
Nsg8
I00
sg9
Nsg15
NsbsVpremises
p6212
g0
(g1
g2
Ntp6213
Rp6214
(dp6215
g6
Nsg8
I00
sg9
Nsg15
NsbsVdays.
p6216
g0
(g1
g2
Ntp6217
Rp6218
(dp6219
g6
Nsg8
I00
sg9
Nsg15
NsbsVbar.
p6220
g0
(g1
g2
Ntp6221
Rp6222
(dp6223
g6
Nsg8
I00
sg9
Nsg15
NsbsVboth
p6224
g0
(g1
g2
Ntp6225
Rp6226
(dp6227
g6
Nsg8
I00
sg9
Nsg15
NsbsVlast
p6228
g0
(g1
g2
Ntp6229
Rp6230
(dp6231
g6
Nsg8
I00
sg9
Nsg15
NsbsVspinned
p6232
g0
(g1
g2
Ntp6233
Rp6234
(dp6235
g6
Nsg8
I00
sg9
Nsg15
NsbsVKazouwee.
p6236
g0
(g1
g2
Ntp6237
Rp6238
(dp6239
g6
Nsg8
I00
sg9
Nsg15
NsbsVrestaurant
p6240
g0
(g1
g2
Ntp6241
Rp6242
(dp6243
g6
Nsg8
I00
sg9
Nsg15
NsbsVsons.
p6244
g0
(g1
g2
Ntp6245
Rp6246
(dp6247
g6
Nsg8
I00
sg9
Nsg15
NsbsVto-dress-in-a-garbage-bag-
p6248
g0
(g1
g2
Ntp6249
Rp6250
(dp6251
g6
Nsg8
I00
sg9
Nsg15
NsbsVbecame
p6252
g0
(g1
g2
Ntp6253
Rp6254
(dp6255
g6
Nsg8
I00
sg9
Nsg15
NsbsVlet
p6256
g0
(g1
g2
Ntp6257
Rp6258
(dp6259
g6
Nsg8
I00
sg9
Nsg15
NsbsVYes
p6260
g0
(g1
g2
Ntp6261
Rp6262
(dp6263
g6
Nsg8
I00
sg9
Nsg15
NsbsVwhole
p6264
g0
(g1
g2
Ntp6265
Rp6266
(dp6267
g6
Nsg8
I00
sg9
Nsg15
NsbsVfinds
p6268
g0
(g1
g2
Ntp6269
Rp6270
(dp6271
g6
Nsg8
I00
sg9
Nsg15
NsbsVliked
p6272
g0
(g1
g2
Ntp6273
Rp6274
(dp6275
g6
Nsg8
I00
sg9
Nsg15
NsbsVdrunk
p6276
g0
(g1
g2
Ntp6277
Rp6278
(dp6279
g6
Nsg8
I00
sg9
Nsg15
NsbsVwhatever
p6280
g0
(g1
g2
Ntp6281
Rp6282
(dp6283
g6
Nsg8
I00
sg9
Nsg15
NsbsVlikes
p6284
g0
(g1
g2
Ntp6285
Rp6286
(dp6287
g6
Nsg8
I00
sg9
Nsg15
NsbsVVictoria
p6288
g0
(g1
g2
Ntp6289
Rp6290
(dp6291
g6
Nsg8
I00
sg9
Nsg15
NsbsVWas
p6292
g0
(g1
g2
Ntp6293
Rp6294
(dp6295
g6
Nsg8
I00
sg9
Nsg15
NsbsVRobin.
p6296
g0
(g1
g2
Ntp6297
Rp6298
(dp6299
g6
Nsg8
I00
sg9
Nsg15
NsbsVAmanda
p6300
g0
(g1
g2
Ntp6301
Rp6302
(dp6303
g6
Nsg8
I00
sg9
Nsg15
NsbsVThree.
p6304
g0
(g1
g2
Ntp6305
Rp6306
(dp6307
g6
Nsg8
I00
sg9
Nsg15
NsbsVsecret
p6308
g0
(g1
g2
Ntp6309
Rp6310
(dp6311
g6
Nsg8
I00
sg9
Nsg15
Nsbsg521
g0
(g1
g2
Ntp6312
Rp6313
(dp6314
g6
Nsg8
I00
sg9
Nsg15
Nsbsg1727
g0
(g1
g2
Ntp6315
Rp6316
(dp6317
g6
Nsg8
I00
sg9
Nsg15
NsbsVwhoa
p6318
g0
(g1
g2
Ntp6319
Rp6320
(dp6321
g6
Nsg8
I00
sg9
Nsg15
NsbsVwoke
p6322
g0
(g1
g2
Ntp6323
Rp6324
(dp6325
g6
Nsg8
I00
sg9
Nsg15
NsbsVDon.
p6326
g0
(g1
g2
Ntp6327
Rp6328
(dp6329
g6
Nsg8
I00
sg9
Nsg15
NsbsVfirm
p6330
g0
(g1
g2
Ntp6331
Rp6332
(dp6333
g6
Nsg8
I00
sg9
Nsg15
NsbsVEriksen.
p6334
g0
(g1
g2
Ntp6335
Rp6336
(dp6337
g6
Nsg8
I00
sg9
Nsg15
NsbsVgay
p6338
g0
(g1
g2
Ntp6339
Rp6340
(dp6341
g6
Nsg8
I00
sg9
Nsg15
NsbsVfire
p6342
g0
(g1
g2
Ntp6343
Rp6344
(dp6345
g6
Nsg8
I00
sg9
Nsg15
NsbsVlives
p6346
g0
(g1
g2
Ntp6347
Rp6348
(dp6349
g6
Nsg8
I00
sg9
Nsg15
NsbsVreason.
p6350
g0
(g1
g2
Ntp6351
Rp6352
(dp6353
g6
Nsg8
I00
sg9
Nsg15
NsbsVDrill
p6354
g0
(g1
g2
Ntp6355
Rp6356
(dp6357
g6
Nsg8
I00
sg9
Nsg15
NsbsVPick
p6358
g0
(g1
g2
Ntp6359
Rp6360
(dp6361
g6
Nsg8
I00
sg9
Nsg15
NsbsVlook
p6362
g0
(g1
g2
Ntp6363
Rp6364
(dp6365
g6
Nsg8
I00
sg9
Nsg15
NsbsVwhile
p6366
g0
(g1
g2
Ntp6367
Rp6368
(dp6369
g6
Nsg8
I00
sg9
Nsg15
NsbsVfun
p6370
g0
(g1
g2
Ntp6371
Rp6372
(dp6373
g6
Nsg8
I00
sg9
Nsg15
NsbsVkissing
p6374
g0
(g1
g2
Ntp6375
Rp6376
(dp6377
g6
Nsg8
I00
sg9
Nsg15
Nsbsg5725
g0
(g1
g2
Ntp6378
Rp6379
(dp6380
g6
Nsg8
I00
sg9
Nsg15
NsbsVganging
p6381
g0
(g1
g2
Ntp6382
Rp6383
(dp6384
g6
Nsg8
I00
sg9
Nsg15
NsbsVCity
p6385
g0
(g1
g2
Ntp6386
Rp6387
(dp6388
g6
Nsg8
I00
sg9
Nsg15
NsbsVleap.
p6389
g0
(g1
g2
Ntp6390
Rp6391
(dp6392
g6
Nsg8
I00
sg9
Nsg15
NsbsVbinding
p6393
g0
(g1
g2
Ntp6394
Rp6395
(dp6396
g6
Nsg8
I00
sg9
Nsg15
NsbsVstarving
p6397
g0
(g1
g2
Ntp6398
Rp6399
(dp6400
g6
Nsg8
I00
sg9
Nsg15
NsbsVscrews
p6401
g0
(g1
g2
Ntp6402
Rp6403
(dp6404
g6
Nsg8
I00
sg9
Nsg15
NsbsVready
p6405
g0
(g1
g2
Ntp6406
Rp6407
(dp6408
g6
Nsg8
I00
sg9
Nsg15
NsbsVrid
p6409
g0
(g1
g2
Ntp6410
Rp6411
(dp6412
g6
Nsg8
I00
sg9
Nsg15
NsbsV34
p6413
g0
(g1
g2
Ntp6414
Rp6415
(dp6416
g6
Nsg8
I00
sg9
Nsg15
NsbsVfunny
p6417
g0
(g1
g2
Ntp6418
Rp6419
(dp6420
g6
Nsg8
I00
sg9
Nsg15
NsbsVJorgensen
p6421
g0
(g1
g2
Ntp6422
Rp6423
(dp6424
g6
Nsg8
I00
sg9
Nsg15
NsbsVanymore
p6425
g0
(g1
g2
Ntp6426
Rp6427
(dp6428
g6
Nsg8
I00
sg9
Nsg15
NsbsVfibers
p6429
g0
(g1
g2
Ntp6430
Rp6431
(dp6432
g6
Nsg8
I00
sg9
Nsg15
NsbsVone-quarter
p6433
g0
(g1
g2
Ntp6434
Rp6435
(dp6436
g6
Nsg8
I00
sg9
Nsg15
NsbsVread
p6437
g0
(g1
g2
Ntp6438
Rp6439
(dp6440
g6
Nsg8
I00
sg9
Nsg15
NsbsV2030
p6441
g0
(g1
g2
Ntp6442
Rp6443
(dp6444
g6
Nsg8
I01
sg9
Nsg15
Nsbsg1689
g0
(g1
g2
Ntp6445
Rp6446
(dp6447
g6
Nsg8
I00
sg9
Nsg15
NsbsVRealtor
p6448
g0
(g1
g2
Ntp6449
Rp6450
(dp6451
g6
Nsg8
I00
sg9
Nsg15
NsbsVused
p6452
g0
(g1
g2
Ntp6453
Rp6454
(dp6455
g6
Nsg8
I00
sg9
Nsg15
NsbsVkeys
p6456
g0
(g1
g2
Ntp6457
Rp6458
(dp6459
g6
Nsg8
I00
sg9
Nsg15
NsbsValert
p6460
g0
(g1
g2
Ntp6461
Rp6462
(dp6463
g6
Nsg8
I00
sg9
Nsg15
NsbsVmoment
p6464
g0
(g1
g2
Ntp6465
Rp6466
(dp6467
g6
Nsg8
I00
sg9
Nsg15
NsbsVmoving
p6468
g0
(g1
g2
Ntp6469
Rp6470
(dp6471
g6
Nsg8
I00
sg9
Nsg15
NsbsVcleaning
p6472
g0
(g1
g2
Ntp6473
Rp6474
(dp6475
g6
Nsg8
I00
sg9
Nsg15
NsbsVEdward.
p6476
g0
(g1
g2
Ntp6477
Rp6478
(dp6479
g6
Nsg8
I00
sg9
Nsg15
NsbsVolder
p6480
g0
(g1
g2
Ntp6481
Rp6482
(dp6483
g6
Nsg8
I00
sg9
Nsg15
NsbsVpeople.
p6484
g0
(g1
g2
Ntp6485
Rp6486
(dp6487
g6
Nsg8
I00
sg9
Nsg15
NsbsVanybody
p6488
g0
(g1
g2
Ntp6489
Rp6490
(dp6491
g6
Nsg8
I00
sg9
Nsg15
NsbsVobviously
p6492
g0
(g1
g2
Ntp6493
Rp6494
(dp6495
g6
Nsg8
I00
sg9
Nsg15
NsbsVperson
p6496
g0
(g1
g2
Ntp6497
Rp6498
(dp6499
g6
Nsg8
I00
sg9
Nsg15
Nsbsg5706
g0
(g1
g2
Ntp6500
Rp6501
(dp6502
g6
Nsg8
I00
sg9
Nsg15
NsbsVKara
p6503
g0
(g1
g2
Ntp6504
Rp6505
(dp6506
g6
Nsg8
I00
sg9
Nsg15
NsbsVGirl
p6507
g0
(g1
g2
Ntp6508
Rp6509
(dp6510
g6
g1595
sg8
I00
sg9
(dp6511
VCoat
p6512
g0
(g1
g2
Ntp6513
Rp6514
(dp6515
g6
Nsg8
I01
sg9
Nsg15
Nsbsg1832
g0
(g1
g2
Ntp6516
Rp6517
(dp6518
g6
Nsg8
I01
sg9
Nsg15
NsbsVtable
p6519
g0
(g1
g2
Ntp6520
Rp6521
(dp6522
g6
Nsg8
I00
sg9
Nsg15
Nsbssg15
NsbsVwatching
p6523
g0
(g1
g2
Ntp6524
Rp6525
(dp6526
g6
Nsg8
I00
sg9
Nsg15
NsbsVPamela
p6527
g0
(g1
g2
Ntp6528
Rp6529
(dp6530
g6
Nsg8
I00
sg9
Nsg15
NsbsVbehind
p6531
g0
(g1
g2
Ntp6532
Rp6533
(dp6534
g6
Nsg8
I00
sg9
Nsg15
NsbsVTread
p6535
g0
(g1
g2
Ntp6536
Rp6537
(dp6538
g6
Nsg8
I00
sg9
Nsg15
NsbsVcut
p6539
g0
(g1
g2
Ntp6540
Rp6541
(dp6542
g6
Nsg8
I00
sg9
Nsg15
NsbsV$
p6543
g0
(g1
g2
Ntp6544
Rp6545
(dp6546
g6
Nsg8
I00
sg9
Nsg15
NsbsVmarrying
p6547
g0
(g1
g2
Ntp6548
Rp6549
(dp6550
g6
Nsg8
I00
sg9
Nsg15
NsbsVbridal
p6551
g0
(g1
g2
Ntp6552
Rp6553
(dp6554
g6
Nsg8
I00
sg9
Nsg15
NsbsVexcited
p6555
g0
(g1
g2
Ntp6556
Rp6557
(dp6558
g6
Nsg8
I00
sg9
Nsg15
NsbsVsurprised
p6559
g0
(g1
g2
Ntp6560
Rp6561
(dp6562
g6
Nsg8
I00
sg9
Nsg15
NsbsVridiculously
p6563
g0
(g1
g2
Ntp6564
Rp6565
(dp6566
g6
Nsg8
I00
sg9
Nsg15
NsbsVOn
p6567
g0
(g1
g2
Ntp6568
Rp6569
(dp6570
g6
Nsg8
I00
sg9
Nsg15
NsbsVLast
p6571
g0
(g1
g2
Ntp6572
Rp6573
(dp6574
g6
Nsg8
I00
sg9
Nsg15
NsbsVOh
p6575
g0
(g1
g2
Ntp6576
Rp6577
(dp6578
g6
Nsg8
I00
sg9
Nsg15
NsbsVDid
p6579
g0
(g1
g2
Ntp6580
Rp6581
(dp6582
g6
Nsg8
I00
sg9
Nsg15
NsbsVbig
p6583
g0
(g1
g2
Ntp6584
Rp6585
(dp6586
g6
Nsg8
I00
sg9
Nsg15
NsbsVshowing
p6587
g0
(g1
g2
Ntp6588
Rp6589
(dp6590
g6
Nsg8
I00
sg9
Nsg15
NsbsVquestion.
p6591
g0
(g1
g2
Ntp6592
Rp6593
(dp6594
g6
Nsg8
I00
sg9
Nsg15
NsbsVmanatee
p6595
g0
(g1
g2
Ntp6596
Rp6597
(dp6598
g6
Nsg8
I00
sg9
Nsg15
NsbsVAir
p6599
g0
(g1
g2
Ntp6600
Rp6601
(dp6602
g6
Nsg8
I00
sg9
Nsg15
NsbsVbit
p6603
g0
(g1
g2
Ntp6604
Rp6605
(dp6606
g6
Nsg8
I00
sg9
Nsg15
NsbsVOr
p6607
g0
(g1
g2
Ntp6608
Rp6609
(dp6610
g6
Nsg8
I00
sg9
Nsg15
NsbsVOK
p6611
g0
(g1
g2
Ntp6612
Rp6613
(dp6614
g6
Nsg8
I00
sg9
Nsg15
NsbsVlost
p6615
g0
(g1
g2
Ntp6616
Rp6617
(dp6618
g6
Nsg8
I00
sg9
Nsg15
NsbsVOF
p6619
g0
(g1
g2
Ntp6620
Rp6621
(dp6622
g6
Nsg8
I00
sg9
Nsg15
NsbsVCohen
p6623
g0
(g1
g2
Ntp6624
Rp6625
(dp6626
g6
Nsg8
I00
sg9
Nsg15
NsbsVpopular
p6627
g0
(g1
g2
Ntp6628
Rp6629
(dp6630
g6
Nsg8
I00
sg9
Nsg15
NsbsVLittle
p6631
g0
(g1
g2
Ntp6632
Rp6633
(dp6634
g6
Nsg8
I00
sg9
Nsg15
NsbsVoften
p6635
g0
(g1
g2
Ntp6636
Rp6637
(dp6638
g6
Nsg8
I00
sg9
Nsg15
NsbsVRoyce.
p6639
g0
(g1
g2
Ntp6640
Rp6641
(dp6642
g6
Nsg8
I00
sg9
Nsg15
NsbsVabsolutely
p6643
g0
(g1
g2
Ntp6644
Rp6645
(dp6646
g6
Nsg8
I00
sg9
Nsg15
NsbsVspring
p6647
g0
(g1
g2
Ntp6648
Rp6649
(dp6650
g6
Nsg8
I00
sg9
Nsg15
NsbsVsome
p6651
g0
(g1
g2
Ntp6652
Rp6653
(dp6654
g6
Nsg8
I00
sg9
Nsg15
NsbsVback
p6655
g0
(g1
g2
Ntp6656
Rp6657
(dp6658
g6
Nsg8
I00
sg9
Nsg15
Nsbsg5552
g0
(g1
g2
Ntp6659
Rp6660
(dp6661
g6
Nsg8
I00
sg9
Nsg15
NsbsVourselves
p6662
g0
(g1
g2
Ntp6663
Rp6664
(dp6665
g6
Nsg8
I00
sg9
Nsg15
NsbsVscale
p6666
g0
(g1
g2
Ntp6667
Rp6668
(dp6669
g6
Nsg8
I00
sg9
Nsg15
NsbsVpet
p6670
g0
(g1
g2
Ntp6671
Rp6672
(dp6673
g6
Nsg8
I00
sg9
Nsg15
NsbsVshall
p6674
g0
(g1
g2
Ntp6675
Rp6676
(dp6677
g6
Nsg8
I00
sg9
Nsg15
NsbsVpep
p6678
g0
(g1
g2
Ntp6679
Rp6680
(dp6681
g6
Nsg8
I00
sg9
Nsg15
NsbsVbogus
p6682
g0
(g1
g2
Ntp6683
Rp6684
(dp6685
g6
Nsg8
I00
sg9
Nsg15
NsbsVBig-time
p6686
g0
(g1
g2
Ntp6687
Rp6688
(dp6689
g6
Nsg8
I00
sg9
Nsg15
NsbsVgood.
p6690
g0
(g1
g2
Ntp6691
Rp6692
(dp6693
g6
Nsg8
I00
sg9
Nsg15
NsbsVeither
p6694
g0
(g1
g2
Ntp6695
Rp6696
(dp6697
g6
Nsg8
I00
sg9
Nsg15
NsbsVbe
p6698
g0
(g1
g2
Ntp6699
Rp6700
(dp6701
g6
Nsg8
I00
sg9
Nsg15
NsbsVloud.
p6702
g0
(g1
g2
Ntp6703
Rp6704
(dp6705
g6
Nsg8
I00
sg9
Nsg15
NsbsVrun
p6706
g0
(g1
g2
Ntp6707
Rp6708
(dp6709
g6
Nsg8
I00
sg9
Nsg15
NsbsVLook
p6710
g0
(g1
g2
Ntp6711
Rp6712
(dp6713
g6
Nsg8
I00
sg9
Nsg15
NsbsVgentleman
p6714
g0
(g1
g2
Ntp6715
Rp6716
(dp6717
g6
Nsg8
I00
sg9
Nsg15
NsbsVjumps
p6718
g0
(g1
g2
Ntp6719
Rp6720
(dp6721
g6
Nsg8
I00
sg9
Nsg15
NsbsVOh-oh-oh-
p6722
g0
(g1
g2
Ntp6723
Rp6724
(dp6725
g6
Nsg8
I00
sg9
Nsg15
NsbsVagreement
p6726
g0
(g1
g2
Ntp6727
Rp6728
(dp6729
g6
Nsg8
I00
sg9
Nsg15
NsbsVstep
p6730
g0
(g1
g2
Ntp6731
Rp6732
(dp6733
g6
Nsg8
I00
sg9
Nsg15
Nsbsg5660
g0
(g1
g2
Ntp6734
Rp6735
(dp6736
g6
Nsg8
I00
sg9
Nsg15
NsbsVnowhere
p6737
g0
(g1
g2
Ntp6738
Rp6739
(dp6740
g6
Nsg8
I00
sg9
Nsg15
NsbsVbecome
p6741
g0
(g1
g2
Ntp6742
Rp6743
(dp6744
g6
Nsg8
I00
sg9
Nsg15
NsbsVfrom
p6745
g0
(g1
g2
Ntp6746
Rp6747
(dp6748
g6
g1595
sg8
I00
sg9
(dp6749
Va
p6750
g0
(g1
g2
Ntp6751
Rp6752
(dp6753
g6
Nsg8
I00
sg9
Nsg15
Nsbsg1832
g0
(g1
g2
Ntp6754
Rp6755
(dp6756
g6
Nsg8
I01
sg9
Nsg15
Nsbsg6539
g0
(g1
g2
Ntp6757
Rp6758
(dp6759
g6
Nsg8
I00
sg9
Nsg15
NsbsVhit
p6760
g0
(g1
g2
Ntp6761
Rp6762
(dp6763
g6
Nsg8
I00
sg9
Nsg15
NsbsVI
p6764
g0
(g1
g2
Ntp6765
Rp6766
(dp6767
g6
Nsg8
I00
sg9
Nsg15
NsbsVstop
p6768
g0
(g1
g2
Ntp6769
Rp6770
(dp6771
g6
Nsg8
I00
sg9
Nsg15
Nsbsg2304
g0
(g1
g2
Ntp6772
Rp6773
(dp6774
g6
Nsg8
I00
sg9
Nsg15
NsbsVcharacter
p6775
g0
(g1
g2
Ntp6776
Rp6777
(dp6778
g6
Nsg8
I00
sg9
Nsg15
NsbsVus
p6779
g0
(g1
g2
Ntp6780
Rp6781
(dp6782
g6
Nsg8
I00
sg9
Nsg15
NsbsVn't
p6783
g0
(g1
g2
Ntp6784
Rp6785
(dp6786
g6
Nsg8
I00
sg9
Nsg15
NsbsVvideo
p6787
g0
(g1
g2
Ntp6788
Rp6789
(dp6790
g6
Nsg8
I00
sg9
Nsg15
Nsbsg697
g0
(g1
g2
Ntp6791
Rp6792
(dp6793
g6
Nsg8
I00
sg9
Nsg15
NsbsVumbrella
p6794
g0
(g1
g2
Ntp6795
Rp6796
(dp6797
g6
Nsg8
I00
sg9
Nsg15
NsbsVyou
p6798
g0
(g1
g2
Ntp6799
Rp6800
(dp6801
g6
Nsg8
I00
sg9
Nsg15
Nsbsg4533
g0
(g1
g2
Ntp6802
Rp6803
(dp6804
g6
Nsg8
I00
sg9
Nsg15
Nsbssg15
NsbsVBob
p6805
g0
(g1
g2
Ntp6806
Rp6807
(dp6808
g6
Nsg8
I00
sg9
Nsg15
NsbsVby
p6809
g0
(g1
g2
Ntp6810
Rp6811
(dp6812
g6
Nsg8
I00
sg9
Nsg15
NsbsVsleep.
p6813
g0
(g1
g2
Ntp6814
Rp6815
(dp6816
g6
Nsg8
I00
sg9
Nsg15
NsbsVcautious
p6817
g0
(g1
g2
Ntp6818
Rp6819
(dp6820
g6
Nsg8
I00
sg9
Nsg15
Nsbsg5608
g0
(g1
g2
Ntp6821
Rp6822
(dp6823
g6
Nsg8
I00
sg9
Nsg15
NsbsVKatie
p6824
g0
(g1
g2
Ntp6825
Rp6826
(dp6827
g6
Nsg8
I00
sg9
Nsg15
NsbsVseeing
p6828
g0
(g1
g2
Ntp6829
Rp6830
(dp6831
g6
Nsg8
I00
sg9
Nsg15
NsbsVSimon
p6832
g0
(g1
g2
Ntp6833
Rp6834
(dp6835
g6
Nsg8
I00
sg9
Nsg15
NsbsV'cause
p6836
g0
(g1
g2
Ntp6837
Rp6838
(dp6839
g6
Nsg8
I00
sg9
Nsg15
Nsbsg1617
g0
(g1
g2
Ntp6840
Rp6841
(dp6842
g6
Nsg8
I00
sg9
Nsg15
NsbsVinto
p6843
g0
(g1
g2
Ntp6844
Rp6845
(dp6846
g6
Nsg8
I00
sg9
Nsg15
NsbsVwithin
p6847
g0
(g1
g2
Ntp6848
Rp6849
(dp6850
g6
Nsg8
I00
sg9
Nsg15
NsbsVYoung
p6851
g0
(g1
g2
Ntp6852
Rp6853
(dp6854
g6
Nsg8
I00
sg9
Nsg15
NsbsVSnowshoe.
p6855
g0
(g1
g2
Ntp6856
Rp6857
(dp6858
g6
Nsg8
I00
sg9
Nsg15
NsbsVgirlfriend.
p6859
g0
(g1
g2
Ntp6860
Rp6861
(dp6862
g6
Nsg8
I00
sg9
Nsg15
NsbsVnext
p6863
g0
(g1
g2
Ntp6864
Rp6865
(dp6866
g6
Nsg8
I00
sg9
Nsg15
NsbsVspending
p6867
g0
(g1
g2
Ntp6868
Rp6869
(dp6870
g6
Nsg8
I00
sg9
Nsg15
NsbsVbelieve.
p6871
g0
(g1
g2
Ntp6872
Rp6873
(dp6874
g6
Nsg8
I00
sg9
Nsg15
NsbsVlong
p6875
g0
(g1
g2
Ntp6876
Rp6877
(dp6878
g6
Nsg8
I00
sg9
Nsg15
NsbsVcamera
p6879
g0
(g1
g2
Ntp6880
Rp6881
(dp6882
g6
Nsg8
I00
sg9
Nsg15
NsbsV:
p6883
g0
(g1
g2
Ntp6884
Rp6885
(dp6886
g6
g1595
sg8
I01
sg9
(dp6887
Vand
p6888
g0
(g1
g2
Ntp6889
Rp6890
(dp6891
g6
Nsg8
I01
sg9
Nsg15
Nsbsg1252
g0
(g1
g2
Ntp6892
Rp6893
(dp6894
g6
Nsg8
I00
sg9
Nsg15
NsbsVJed
p6895
g0
(g1
g2
Ntp6896
Rp6897
(dp6898
g6
Nsg8
I01
sg9
Nsg15
Nsbsg5560
g0
(g1
g2
Ntp6899
Rp6900
(dp6901
g6
Nsg8
I00
sg9
Nsg15
NsbsVNew
p6902
g0
(g1
g2
Ntp6903
Rp6904
(dp6905
g6
Nsg8
I00
sg9
Nsg15
Nsbsg5575
g0
(g1
g2
Ntp6906
Rp6907
(dp6908
g6
Nsg8
I00
sg9
Nsg15
Nsbsg1832
g0
(g1
g2
Ntp6909
Rp6910
(dp6911
g6
g344
sg8
I01
sg9
(dp6912
VEverybody
p6913
g0
(g1
g2
Ntp6914
Rp6915
(dp6916
g6
Nsg8
I01
sg9
Nsg15
NsbsVSarah
p6917
g0
(g1
g2
Ntp6918
Rp6919
(dp6920
g6
Nsg8
I01
sg9
Nsg15
NsbsVBarney
p6921
g0
(g1
g2
Ntp6922
Rp6923
(dp6924
g6
Nsg8
I01
sg9
Nsg15
NsbsVCindy
p6925
g0
(g1
g2
Ntp6926
Rp6927
(dp6928
g6
Nsg8
I01
sg9
Nsg15
NsbsVPunchy
p6929
g0
(g1
g2
Ntp6930
Rp6931
(dp6932
g6
Nsg8
I01
sg9
Nsg15
NsbsVMARSHALL
p6933
g0
(g1
g2
Ntp6934
Rp6935
(dp6936
g6
Nsg8
I01
sg9
Nsg15
NsbsVJim
p6937
g0
(g1
g2
Ntp6938
Rp6939
(dp6940
g6
Nsg8
I01
sg9
Nsg15
NsbsVJerry
p6941
g0
(g1
g2
Ntp6942
Rp6943
(dp6944
g6
Nsg8
I01
sg9
Nsg15
NsbsVNora
p6945
g0
(g1
g2
Ntp6946
Rp6947
(dp6948
g6
Nsg8
I01
sg9
Nsg15
NsbsVJefferson
p6949
g0
(g1
g2
Ntp6950
Rp6951
(dp6952
g6
Nsg8
I01
sg9
Nsg15
NsbsVDerek
p6953
g0
(g1
g2
Ntp6954
Rp6955
(dp6956
g6
Nsg8
I00
sg9
Nsg15
NsbsVEllen
p6957
g0
(g1
g2
Ntp6958
Rp6959
(dp6960
g6
Nsg8
I01
sg9
Nsg15
NsbsVBartender
p6961
g0
(g1
g2
Ntp6962
Rp6963
(dp6964
g6
Nsg8
I01
sg9
Nsg15
NsbsVVictoria
p6965
g0
(g1
g2
Ntp6966
Rp6967
(dp6968
g6
Nsg8
I01
sg9
Nsg15
NsbsVLily
p6969
g0
(g1
g2
Ntp6970
Rp6971
(dp6972
g6
Nsg8
I01
sg9
Nsg15
NsbsVROBIN
p6973
g0
(g1
g2
Ntp6974
Rp6975
(dp6976
g6
Nsg8
I01
sg9
Nsg15
NsbsVWaiters
p6977
g0
(g1
g2
Ntp6978
Rp6979
(dp6980
g6
Nsg8
I01
sg9
Nsg15
NsbsVWoman
p6981
g0
(g1
g2
Ntp6982
Rp6983
(dp6984
g6
Nsg8
I01
sg9
Nsg15
NsbsVShannon
p6985
g0
(g1
g2
Ntp6986
Rp6987
(dp6988
g6
Nsg8
I01
sg9
Nsg15
NsbsVMarvin
p6989
g0
(g1
g2
Ntp6990
Rp6991
(dp6992
g6
Nsg8
I01
sg9
Nsg15
NsbsVNorah
p6993
g0
(g1
g2
Ntp6994
Rp6995
(dp6996
g6
Nsg8
I01
sg9
Nsg15
NsbsVIke
p6997
g0
(g1
g2
Ntp6998
Rp6999
(dp7000
g6
Nsg8
I01
sg9
Nsg15
NsbsVPJ
p7001
g0
(g1
g2
Ntp7002
Rp7003
(dp7004
g6
Nsg8
I01
sg9
Nsg15
NsbsVMan
p7005
g0
(g1
g2
Ntp7006
Rp7007
(dp7008
g6
Nsg8
I01
sg9
Nsg15
NsbsVDon
p7009
g0
(g1
g2
Ntp7010
Rp7011
(dp7012
g6
Nsg8
I01
sg9
Nsg15
NsbsVJames
p7013
g0
(g1
g2
Ntp7014
Rp7015
(dp7016
g6
Nsg8
I01
sg9
Nsg15
NsbsVStella
p7017
g0
(g1
g2
Ntp7018
Rp7019
(dp7020
g6
Nsg8
I01
sg9
Nsg15
NsbsVJudy
p7021
g0
(g1
g2
Ntp7022
Rp7023
(dp7024
g6
Nsg8
I01
sg9
Nsg15
NsbsVNarrator
p7025
g0
(g1
g2
Ntp7026
Rp7027
(dp7028
g6
Nsg8
I01
sg9
Nsg15
NsbsVBetty
p7029
g0
(g1
g2
Ntp7030
Rp7031
(dp7032
g6
Nsg8
I01
sg9
Nsg15
NsbsVJen
p7033
g0
(g1
g2
Ntp7034
Rp7035
(dp7036
g6
Nsg8
I01
sg9
Nsg15
NsbsVMother
p7037
g0
(g1
g2
Ntp7038
Rp7039
(dp7040
g6
Nsg8
I01
sg9
Nsg15
NsbsVLoretta
p7041
g0
(g1
g2
Ntp7042
Rp7043
(dp7044
g6
Nsg8
I01
sg9
Nsg15
NsbsVVoice
p7045
g0
(g1
g2
Ntp7046
Rp7047
(dp7048
g6
Nsg8
I01
sg9
Nsg15
NsbsVRobin
p7049
g0
(g1
g2
Ntp7050
Rp7051
(dp7052
g6
Nsg8
I01
sg9
Nsg15
NsbsVWaitress
p7053
g0
(g1
g2
Ntp7054
Rp7055
(dp7056
g6
Nsg8
I01
sg9
Nsg15
NsbsVTony
p7057
g0
(g1
g2
Ntp7058
Rp7059
(dp7060
g6
Nsg8
I01
sg9
Nsg15
NsbsVKendall
p7061
g0
(g1
g2
Ntp7062
Rp7063
(dp7064
g6
Nsg8
I01
sg9
Nsg15
NsbsVAll
p7065
g0
(g1
g2
Ntp7066
Rp7067
(dp7068
g6
Nsg8
I01
sg9
Nsg15
NsbsVTatiana
p7069
g0
(g1
g2
Ntp7070
Rp7071
(dp7072
g6
Nsg8
I01
sg9
Nsg15
NsbsVMarshall
p7073
g0
(g1
g2
Ntp7074
Rp7075
(dp7076
g6
Nsg8
I01
sg9
Nsg15
NsbsVRachel
p7077
g0
(g1
g2
Ntp7078
Rp7079
(dp7080
g6
Nsg8
I01
sg9
Nsg15
NsbsVTed
p7081
g0
(g1
g2
Ntp7082
Rp7083
(dp7084
g6
Nsg8
I01
sg9
Nsg15
NsbsVSteve
p7085
g0
(g1
g2
Ntp7086
Rp7087
(dp7088
g6
Nsg8
I01
sg9
Nsg15
NsbsVBlah-blah
p7089
g0
(g1
g2
Ntp7090
Rp7091
(dp7092
g6
Nsg8
I01
sg9
Nsg15
NsbsVRandy
p7093
g0
(g1
g2
Ntp7094
Rp7095
(dp7096
g6
Nsg8
I01
sg9
Nsg15
NsbsVBilson
p7097
g0
(g1
g2
Ntp7098
Rp7099
(dp7100
g6
Nsg8
I01
sg9
Nsg15
NsbsVFemale
p7101
g0
(g1
g2
Ntp7102
Rp7103
(dp7104
g6
Nsg8
I01
sg9
Nsg15
NsbsVDoug
p7105
g0
(g1
g2
Ntp7106
Rp7107
(dp7108
g6
Nsg8
I01
sg9
Nsg15
NsbsVNARRATOR
p7109
g0
(g1
g2
Ntp7110
Rp7111
(dp7112
g6
Nsg8
I01
sg9
Nsg15
NsbsVGirl
p7113
g0
(g1
g2
Ntp7114
Rp7115
(dp7116
g6
Nsg8
I01
sg9
Nsg15
NsbsVSandy
p7117
g0
(g1
g2
Ntp7118
Rp7119
(dp7120
g6
Nsg8
I01
sg9
Nsg15
Nsbssg15
NsbsVfrom
p7121
g0
(g1
g2
Ntp7122
Rp7123
(dp7124
g6
Nsg8
I01
sg9
Nsg15
Nsbsg5592
g0
(g1
g2
Ntp7125
Rp7126
(dp7127
g6
Nsg8
I00
sg9
Nsg15
NsbsV,
p7128
g0
(g1
g2
Ntp7129
Rp7130
(dp7131
g6
Nsg8
I00
sg9
Nsg15
NsbsVAlan
p7132
g0
(g1
g2
Ntp7133
Rp7134
(dp7135
g6
Nsg8
I01
sg9
Nsg15
NsbsVlooking
p7136
g0
(g1
g2
Ntp7137
Rp7138
(dp7139
g6
Nsg8
I00
sg9
Nsg15
NsbsVcrying
p7140
g0
(g1
g2
Ntp7141
Rp7142
(dp7143
g6
Nsg8
I00
sg9
Nsg15
NsbsV2030
p7144
g0
(g1
g2
Ntp7145
Rp7146
(dp7147
g6
Nsg8
I01
sg9
Nsg15
NsbsV?
p7148
g0
(g1
g2
Ntp7149
Rp7150
(dp7151
g6
Nsg8
I00
sg9
Nsg15
NsbsV...
p7152
g0
(g1
g2
Ntp7153
Rp7154
(dp7155
g6
Nsg8
I00
sg9
Nsg15
NsbsV's
p7156
g0
(g1
g2
Ntp7157
Rp7158
(dp7159
g6
Nsg8
I01
sg9
Nsg15
Nsbsg5969
g0
(g1
g2
Ntp7160
Rp7161
(dp7162
g6
Nsg8
I00
sg9
Nsg15
NsbsVMrs.
p7163
g0
(g1
g2
Ntp7164
Rp7165
(dp7166
g6
Nsg8
I01
sg9
Nsg15
NsbsVYeah.
p7167
g0
(g1
g2
Ntp7168
Rp7169
(dp7170
g6
Nsg8
I00
sg9
Nsg15
Nsbsg5680
g0
(g1
g2
Ntp7171
Rp7172
(dp7173
g6
Nsg8
I00
sg9
Nsg15
Nsbsg5660
g0
(g1
g2
Ntp7174
Rp7175
(dp7176
g6
Nsg8
I00
sg9
Nsg15
NsbsVMr
p7177
g0
(g1
g2
Ntp7178
Rp7179
(dp7180
g6
Nsg8
I01
sg9
Nsg15
NsbsVHula
p7181
g0
(g1
g2
Ntp7182
Rp7183
(dp7184
g6
Nsg8
I01
sg9
Nsg15
NsbsVTHE
p7185
g0
(g1
g2
Ntp7186
Rp7187
(dp7188
g6
Nsg8
I00
sg9
Nsg15
Nsbsg5676
g0
(g1
g2
Ntp7189
Rp7190
(dp7191
g6
Nsg8
I00
sg9
Nsg15
NsbsVTed
p7192
g0
(g1
g2
Ntp7193
Rp7194
(dp7195
g6
Nsg8
I01
sg9
Nsg15
Nsbsg5721
g0
(g1
g2
Ntp7196
Rp7197
(dp7198
g6
Nsg8
I00
sg9
Nsg15
NsbsVCheck
p7199
g0
(g1
g2
Ntp7200
Rp7201
(dp7202
g6
Nsg8
I01
sg9
Nsg15
NsbsVFolk
p7203
g0
(g1
g2
Ntp7204
Rp7205
(dp7206
g6
Nsg8
I00
sg9
Nsg15
Nsbssg15
NsbsVCome
p7207
g0
(g1
g2
Ntp7208
Rp7209
(dp7210
g6
Nsg8
I00
sg9
Nsg15
NsbsVmudflaps.
p7211
g0
(g1
g2
Ntp7212
Rp7213
(dp7214
g6
Nsg8
I00
sg9
Nsg15
NsbsVopens
p7215
g0
(g1
g2
Ntp7216
Rp7217
(dp7218
g6
Nsg8
I00
sg9
Nsg15
NsbsVhimself
p7219
g0
(g1
g2
Ntp7220
Rp7221
(dp7222
g6
Nsg8
I00
sg9
Nsg15
NsbsVregistered
p7223
g0
(g1
g2
Ntp7224
Rp7225
(dp7226
g6
Nsg8
I00
sg9
Nsg15
NsbsVNapkin
p7227
g0
(g1
g2
Ntp7228
Rp7229
(dp7230
g6
Nsg8
I00
sg9
Nsg15
NsbsVMs.
p7231
g0
(g1
g2
Ntp7232
Rp7233
(dp7234
g6
Nsg8
I00
sg9
Nsg15
NsbsValive
p7235
g0
(g1
g2
Ntp7236
Rp7237
(dp7238
g6
Nsg8
I00
sg9
Nsg15
NsbsVWesleyan
p7239
g0
(g1
g2
Ntp7240
Rp7241
(dp7242
g6
Nsg8
I00
sg9
Nsg15
NsbsVup
p7243
g0
(g1
g2
Ntp7244
Rp7245
(dp7246
g6
Nsg8
I00
sg9
Nsg15
NsbsVus
p7247
g0
(g1
g2
Ntp7248
Rp7249
(dp7250
g6
Nsg8
I00
sg9
Nsg15
NsbsVplanet
p7251
g0
(g1
g2
Ntp7252
Rp7253
(dp7254
g6
Nsg8
I00
sg9
Nsg15
NsbsV're
p7255
g0
(g1
g2
Ntp7256
Rp7257
(dp7258
g6
Nsg8
I00
sg9
Nsg15
NsbsVuh
p7259
g0
(g1
g2
Ntp7260
Rp7261
(dp7262
g6
Nsg8
I00
sg9
Nsg15
NsbsVFlorence
p7263
g0
(g1
g2
Ntp7264
Rp7265
(dp7266
g6
Nsg8
I00
sg9
Nsg15
NsbsVcalled
p7267
g0
(g1
g2
Ntp7268
Rp7269
(dp7270
g6
Nsg8
I00
sg9
Nsg15
NsbsVordered
p7271
g0
(g1
g2
Ntp7272
Rp7273
(dp7274
g6
Nsg8
I00
sg9
Nsg15
NsbsVunsafe
p7275
g0
(g1
g2
Ntp7276
Rp7277
(dp7278
g6
Nsg8
I00
sg9
Nsg15
NsbsVamphitheater
p7279
g0
(g1
g2
Ntp7280
Rp7281
(dp7282
g6
Nsg8
I00
sg9
Nsg15
Nsbsg1637
g0
(g1
g2
Ntp7283
Rp7284
(dp7285
g6
Nsg8
I00
sg9
Nsg15
NsbsVsingle
p7286
g0
(g1
g2
Ntp7287
Rp7288
(dp7289
g6
Nsg8
I00
sg9
Nsg15
NsbsVsmile.
p7290
g0
(g1
g2
Ntp7291
Rp7292
(dp7293
g6
Nsg8
I00
sg9
Nsg15
NsbsVHewitt
p7294
g0
(g1
g2
Ntp7295
Rp7296
(dp7297
g6
Nsg8
I00
sg9
Nsg15
NsbsVlemon
p7298
g0
(g1
g2
Ntp7299
Rp7300
(dp7301
g6
Nsg8
I00
sg9
Nsg15
NsbsVTV
p7302
g0
(g1
g2
Ntp7303
Rp7304
(dp7305
g6
Nsg8
I00
sg9
Nsg15
Nsbsg5596
g0
(g1
g2
Ntp7306
Rp7307
(dp7308
g6
Nsg8
I00
sg9
Nsg15
NsbsVoccasional
p7309
g0
(g1
g2
Ntp7310
Rp7311
(dp7312
g6
Nsg8
I00
sg9
Nsg15
NsbsVMad
p7313
g0
(g1
g2
Ntp7314
Rp7315
(dp7316
g6
Nsg8
I00
sg9
Nsg15
NsbsVGrandma
p7317
g0
(g1
g2
Ntp7318
Rp7319
(dp7320
g6
Nsg8
I00
sg9
Nsg15
NsbsVnice
p7321
g0
(g1
g2
Ntp7322
Rp7323
(dp7324
g6
Nsg8
I00
sg9
Nsg15
NsbsVexplaining
p7325
g0
(g1
g2
Ntp7326
Rp7327
(dp7328
g6
Nsg8
I00
sg9
Nsg15
NsbsVMetro
p7329
g0
(g1
g2
Ntp7330
Rp7331
(dp7332
g6
Nsg8
I00
sg9
Nsg15
NsbsVproblems
p7333
g0
(g1
g2
Ntp7334
Rp7335
(dp7336
g6
Nsg8
I00
sg9
Nsg15
NsbsVprepared
p7337
g0
(g1
g2
Ntp7338
Rp7339
(dp7340
g6
Nsg8
I00
sg9
Nsg15
NsbsVreplace
p7341
g0
(g1
g2
Ntp7342
Rp7343
(dp7344
g6
Nsg8
I00
sg9
Nsg15
NsbsVRacket
p7345
g0
(g1
g2
Ntp7346
Rp7347
(dp7348
g6
Nsg8
I00
sg9
Nsg15
NsbsVrecognize.
p7349
g0
(g1
g2
Ntp7350
Rp7351
(dp7352
g6
Nsg8
I00
sg9
Nsg15
NsbsVBUILDING
p7353
g0
(g1
g2
Ntp7354
Rp7355
(dp7356
g6
Nsg8
I00
sg9
Nsg15
NsbsV'Sup
p7357
g0
(g1
g2
Ntp7358
Rp7359
(dp7360
g6
Nsg8
I00
sg9
Nsg15
NsbsVlane
p7361
g0
(g1
g2
Ntp7362
Rp7363
(dp7364
g6
Nsg8
I00
sg9
Nsg15
NsbsVAn
p7365
g0
(g1
g2
Ntp7366
Rp7367
(dp7368
g6
Nsg8
I00
sg9
Nsg15
NsbsVback.
p7369
g0
(g1
g2
Ntp7370
Rp7371
(dp7372
g6
Nsg8
I00
sg9
Nsg15
NsbsVAs
p7373
g0
(g1
g2
Ntp7374
Rp7375
(dp7376
g6
Nsg8
I00
sg9
Nsg15
NsbsV2006
p7377
g0
(g1
g2
Ntp7378
Rp7379
(dp7380
g6
Nsg8
I00
sg9
Nsg15
NsbsVAt
p7381
g0
(g1
g2
Ntp7382
Rp7383
(dp7384
g6
Nsg8
I00
sg9
Nsg15
NsbsVAw
p7385
g0
(g1
g2
Ntp7386
Rp7387
(dp7388
g6
Nsg8
I00
sg9
Nsg15
NsbsVholed
p7389
g0
(g1
g2
Ntp7390
Rp7391
(dp7392
g6
Nsg8
I00
sg9
Nsg15
Nsbsg5729
g0
(g1
g2
Ntp7393
Rp7394
(dp7395
g6
Nsg8
I00
sg9
Nsg15
NsbsVhaving
p7396
g0
(g1
g2
Ntp7397
Rp7398
(dp7399
g6
Nsg8
I00
sg9
Nsg15
NsbsVonce
p7400
g0
(g1
g2
Ntp7401
Rp7402
(dp7403
g6
Nsg8
I00
sg9
Nsg15
NsbsVhappy.
p7404
g0
(g1
g2
Ntp7405
Rp7406
(dp7407
g6
Nsg8
I00
sg9
Nsg15
NsbsVHolly
p7408
g0
(g1
g2
Ntp7409
Rp7410
(dp7411
g6
Nsg8
I00
sg9
Nsg15
NsbsVerky-erky
p7412
g0
(g1
g2
Ntp7413
Rp7414
(dp7415
g6
Nsg8
I00
sg9
Nsg15
NsbsVgo
p7416
g0
(g1
g2
Ntp7417
Rp7418
(dp7419
g6
Nsg8
I00
sg9
Nsg15
NsbsVflashback
p7420
g0
(g1
g2
Ntp7421
Rp7422
(dp7423
g6
Nsg8
I00
sg9
Nsg15
NsbsVadjustment
p7424
g0
(g1
g2
Ntp7425
Rp7426
(dp7427
g6
Nsg8
I00
sg9
Nsg15
Nsbsg2882
g0
(g1
g2
Ntp7428
Rp7429
(dp7430
g6
Nsg8
I00
sg9
Nsg15
NsbsVdisposal
p7431
g0
(g1
g2
Ntp7432
Rp7433
(dp7434
g6
Nsg8
I00
sg9
Nsg15
NsbsVsuave
p7435
g0
(g1
g2
Ntp7436
Rp7437
(dp7438
g6
Nsg8
I00
sg9
Nsg15
NsbsVyoung
p7439
g0
(g1
g2
Ntp7440
Rp7441
(dp7442
g6
Nsg8
I00
sg9
Nsg15
NsbsVsend
p7443
g0
(g1
g2
Ntp7444
Rp7445
(dp7446
g6
Nsg8
I00
sg9
Nsg15
NsbsVobstinate
p7447
g0
(g1
g2
Ntp7448
Rp7449
(dp7450
g6
Nsg8
I00
sg9
Nsg15
NsbsVsuite
p7451
g0
(g1
g2
Ntp7452
Rp7453
(dp7454
g6
Nsg8
I00
sg9
Nsg15
NsbsVNow
p7455
g0
(g1
g2
Ntp7456
Rp7457
(dp7458
g6
Nsg8
I00
sg9
Nsg15
NsbsVrecitals
p7459
g0
(g1
g2
Ntp7460
Rp7461
(dp7462
g6
Nsg8
I00
sg9
Nsg15
NsbsVCanadian
p7463
g0
(g1
g2
Ntp7464
Rp7465
(dp7466
g6
Nsg8
I00
sg9
Nsg15
NsbsVMrs.
p7467
g0
(g1
g2
Ntp7468
Rp7469
(dp7470
g6
Nsg8
I00
sg9
Nsg15
NsbsVspoon
p7471
g0
(g1
g2
Ntp7472
Rp7473
(dp7474
g6
Nsg8
I00
sg9
Nsg15
NsbsVputting
p7475
g0
(g1
g2
Ntp7476
Rp7477
(dp7478
g6
Nsg8
I00
sg9
Nsg15
NsbsVtelling
p7479
g0
(g1
g2
Ntp7480
Rp7481
(dp7482
g6
Nsg8
I00
sg9
Nsg15
NsbsVdrinking
p7483
g0
(g1
g2
Ntp7484
Rp7485
(dp7486
g6
Nsg8
I00
sg9
Nsg15
NsbsV'cuz
p7487
g0
(g1
g2
Ntp7488
Rp7489
(dp7490
g6
Nsg8
I00
sg9
Nsg15
NsbsVentire
p7491
g0
(g1
g2
Ntp7492
Rp7493
(dp7494
g6
Nsg8
I00
sg9
Nsg15
NsbsVNo.
p7495
g0
(g1
g2
Ntp7496
Rp7497
(dp7498
g6
Nsg8
I00
sg9
Nsg15
NsbsVFalse
p7499
g0
(g1
g2
Ntp7500
Rp7501
(dp7502
g6
Nsg8
I00
sg9
Nsg15
NsbsVcream.
p7503
g0
(g1
g2
Ntp7504
Rp7505
(dp7506
g6
Nsg8
I00
sg9
Nsg15
NsbsVgender
p7507
g0
(g1
g2
Ntp7508
Rp7509
(dp7510
g6
Nsg8
I00
sg9
Nsg15
NsbsVmarry
p7511
g0
(g1
g2
Ntp7512
Rp7513
(dp7514
g6
Nsg8
I00
sg9
Nsg15
NsbsVgullible
p7515
g0
(g1
g2
Ntp7516
Rp7517
(dp7518
g6
Nsg8
I00
sg9
Nsg15
NsbsVsuit.
p7519
g0
(g1
g2
Ntp7520
Rp7521
(dp7522
g6
Nsg8
I00
sg9
Nsg15
NsbsVrace
p7523
g0
(g1
g2
Ntp7524
Rp7525
(dp7526
g6
Nsg8
I00
sg9
Nsg15
NsbsVnoted
p7527
g0
(g1
g2
Ntp7528
Rp7529
(dp7530
g6
Nsg8
I00
sg9
Nsg15
NsbsVpants.
p7531
g0
(g1
g2
Ntp7532
Rp7533
(dp7534
g6
Nsg8
I00
sg9
Nsg15
NsbsVMagnificent
p7535
g0
(g1
g2
Ntp7536
Rp7537
(dp7538
g6
Nsg8
I00
sg9
Nsg15
NsbsVwrestling
p7539
g0
(g1
g2
Ntp7540
Rp7541
(dp7542
g6
Nsg8
I00
sg9
Nsg15
NsbsVsensation
p7543
g0
(g1
g2
Ntp7544
Rp7545
(dp7546
g6
Nsg8
I00
sg9
Nsg15
NsbsVboots
p7547
g0
(g1
g2
Ntp7548
Rp7549
(dp7550
g6
Nsg8
I00
sg9
Nsg15
Nsbsg6787
g0
(g1
g2
Ntp7551
Rp7552
(dp7553
g6
Nsg8
I00
sg9
Nsg15
NsbsVbooth
p7554
g0
(g1
g2
Ntp7555
Rp7556
(dp7557
g6
Nsg8
I00
sg9
Nsg15
NsbsVpicked
p7558
g0
(g1
g2
Ntp7559
Rp7560
(dp7561
g6
Nsg8
I00
sg9
Nsg15
NsbsVreunion
p7562
g0
(g1
g2
Ntp7563
Rp7564
(dp7565
g6
Nsg8
I00
sg9
Nsg15
NsbsVclick
p7566
g0
(g1
g2
Ntp7567
Rp7568
(dp7569
g6
Nsg8
I00
sg9
Nsg15
NsbsVthat.
p7570
g0
(g1
g2
Ntp7571
Rp7572
(dp7573
g6
Nsg8
I00
sg9
Nsg15
NsbsVplays
p7574
g0
(g1
g2
Ntp7575
Rp7576
(dp7577
g6
Nsg8
I00
sg9
Nsg15
NsbsVJanet
p7578
g0
(g1
g2
Ntp7579
Rp7580
(dp7581
g6
Nsg8
I00
sg9
Nsg15
NsbsVgiving
p7582
g0
(g1
g2
Ntp7583
Rp7584
(dp7585
g6
Nsg8
I00
sg9
Nsg15
NsbsVAlan
p7586
g0
(g1
g2
Ntp7587
Rp7588
(dp7589
g6
Nsg8
I00
sg9
Nsg15
Nsbsg1693
g0
(g1
g2
Ntp7590
Rp7591
(dp7592
g6
Nsg8
I00
sg9
Nsg15
NsbsVcrossed
p7593
g0
(g1
g2
Ntp7594
Rp7595
(dp7596
g6
Nsg8
I00
sg9
Nsg15
NsbsV;
p7597
g0
(g1
g2
Ntp7598
Rp7599
(dp7600
g6
g1595
sg8
I00
sg9
(dp7601
g1832
g0
(g1
g2
Ntp7602
Rp7603
(dp7604
g6
Nsg8
I01
sg9
Nsg15
NsbsVyou
p7605
g0
(g1
g2
Ntp7606
Rp7607
(dp7608
g6
Nsg8
I00
sg9
Nsg15
NsbsVto
p7609
g0
(g1
g2
Ntp7610
Rp7611
(dp7612
g6
Nsg8
I00
sg9
Nsg15
Nsbssg15
NsbsVbody
p7613
g0
(g1
g2
Ntp7614
Rp7615
(dp7616
g6
Nsg8
I00
sg9
Nsg15
NsbsVchose
p7617
g0
(g1
g2
Ntp7618
Rp7619
(dp7620
g6
Nsg8
I00
sg9
Nsg15
NsbsVgot
p7621
g0
(g1
g2
Ntp7622
Rp7623
(dp7624
g6
Nsg8
I00
sg9
Nsg15
NsbsVeverything.
p7625
g0
(g1
g2
Ntp7626
Rp7627
(dp7628
g6
Nsg8
I00
sg9
Nsg15
NsbsVMuchas
p7629
g0
(g1
g2
Ntp7630
Rp7631
(dp7632
g6
Nsg8
I00
sg9
Nsg15
NsbsVgreat
p7633
g0
(g1
g2
Ntp7634
Rp7635
(dp7636
g6
Nsg8
I00
sg9
Nsg15
NsbsVengage
p7637
g0
(g1
g2
Ntp7638
Rp7639
(dp7640
g6
Nsg8
I00
sg9
Nsg15
NsbsVinvolved
p7641
g0
(g1
g2
Ntp7642
Rp7643
(dp7644
g6
Nsg8
I00
sg9
Nsg15
NsbsV30
p7645
g0
(g1
g2
Ntp7646
Rp7647
(dp7648
g6
Nsg8
I00
sg9
Nsg15
NsbsV37
p7649
g0
(g1
g2
Ntp7650
Rp7651
(dp7652
g6
Nsg8
I00
sg9
Nsg15
NsbsVBack
p7653
g0
(g1
g2
Ntp7654
Rp7655
(dp7656
g6
Nsg8
I00
sg9
Nsg15
NsbsVleaving
p7657
g0
(g1
g2
Ntp7658
Rp7659
(dp7660
g6
Nsg8
I00
sg9
Nsg15
NsbsVnervous
p7661
g0
(g1
g2
Ntp7662
Rp7663
(dp7664
g6
Nsg8
I00
sg9
Nsg15
NsbsVhonor
p7665
g0
(g1
g2
Ntp7666
Rp7667
(dp7668
g6
Nsg8
I00
sg9
Nsg15
NsbsVnamed
p7669
g0
(g1
g2
Ntp7670
Rp7671
(dp7672
g6
Nsg8
I00
sg9
Nsg15
NsbsVapple
p7673
g0
(g1
g2
Ntp7674
Rp7675
(dp7676
g6
Nsg8
I00
sg9
Nsg15
NsbsVblizzard
p7677
g0
(g1
g2
Ntp7678
Rp7679
(dp7680
g6
Nsg8
I00
sg9
Nsg15
NsbsVsingins
p7681
g0
(g1
g2
Ntp7682
Rp7683
(dp7684
g6
Nsg8
I00
sg9
Nsg15
NsbsVwin
p7685
g0
(g1
g2
Ntp7686
Rp7687
(dp7688
g6
Nsg8
I00
sg9
Nsg15
NsbsVduck
p7689
g0
(g1
g2
Ntp7690
Rp7691
(dp7692
g6
Nsg8
I00
sg9
Nsg15
NsbsVsinging
p7693
g0
(g1
g2
Ntp7694
Rp7695
(dp7696
g6
Nsg8
I00
sg9
Nsg15
NsbsVNice
p7697
g0
(g1
g2
Ntp7698
Rp7699
(dp7700
g6
Nsg8
I00
sg9
Nsg15
NsbsVstanding
p7701
g0
(g1
g2
Ntp7702
Rp7703
(dp7704
g6
Nsg8
I00
sg9
Nsg15
NsbsVfed
p7705
g0
(g1
g2
Ntp7706
Rp7707
(dp7708
g6
Nsg8
I00
sg9
Nsg15
NsbsVcrap
p7709
g0
(g1
g2
Ntp7710
Rp7711
(dp7712
g6
Nsg8
I00
sg9
Nsg15
NsbsV&
p7713
g0
(g1
g2
Ntp7714
Rp7715
(dp7716
g6
Nsg8
I00
sg9
Nsg15
NsbsVHuh
p7717
g0
(g1
g2
Ntp7718
Rp7719
(dp7720
g6
Nsg8
I00
sg9
Nsg15
NsbsVBilson
p7721
g0
(g1
g2
Ntp7722
Rp7723
(dp7724
g6
Nsg8
I00
sg9
Nsg15
NsbsVcodependent
p7725
g0
(g1
g2
Ntp7726
Rp7727
(dp7728
g6
Nsg8
I00
sg9
Nsg15
NsbsVdoubt
p7729
g0
(g1
g2
Ntp7730
Rp7731
(dp7732
g6
Nsg8
I00
sg9
Nsg15
NsbsVsix-foot
p7733
g0
(g1
g2
Ntp7734
Rp7735
(dp7736
g6
Nsg8
I00
sg9
Nsg15
NsbsVpossession
p7737
g0
(g1
g2
Ntp7738
Rp7739
(dp7740
g6
Nsg8
I00
sg9
Nsg15
NsbsVbox.
p7741
g0
(g1
g2
Ntp7742
Rp7743
(dp7744
g6
Nsg8
I00
sg9
Nsg15
NsbsVstarted
p7745
g0
(g1
g2
Ntp7746
Rp7747
(dp7748
g6
Nsg8
I00
sg9
Nsg15
NsbsVoccurred
p7749
g0
(g1
g2
Ntp7750
Rp7751
(dp7752
g6
Nsg8
I00
sg9
Nsg15
NsbsVrabbit
p7753
g0
(g1
g2
Ntp7754
Rp7755
(dp7756
g6
Nsg8
I00
sg9
Nsg15
NsbsVbaby
p7757
g0
(g1
g2
Ntp7758
Rp7759
(dp7760
g6
Nsg8
I00
sg9
Nsg15
NsbsVwomen
p7761
g0
(g1
g2
Ntp7762
Rp7763
(dp7764
g6
Nsg8
I00
sg9
Nsg15
NsbsVRegardless
p7765
g0
(g1
g2
Ntp7766
Rp7767
(dp7768
g6
Nsg8
I00
sg9
Nsg15
NsbsVsalad
p7769
g0
(g1
g2
Ntp7770
Rp7771
(dp7772
g6
Nsg8
I00
sg9
Nsg15
NsbsVthis
p7773
g0
(g1
g2
Ntp7774
Rp7775
(dp7776
g6
Nsg8
I00
sg9
Nsg15
NsbsVus.
p7777
g0
(g1
g2
Ntp7778
Rp7779
(dp7780
g6
Nsg8
I00
sg9
Nsg15
NsbsVchallenge
p7781
g0
(g1
g2
Ntp7782
Rp7783
(dp7784
g6
Nsg8
I00
sg9
Nsg15
NsbsV\u266a
p7785
g0
(g1
g2
Ntp7786
Rp7787
(dp7788
g6
Nsg8
I00
sg9
Nsg15
NsbsVobvious
p7789
g0
(g1
g2
Ntp7790
Rp7791
(dp7792
g6
Nsg8
I00
sg9
Nsg15
NsbsVdrill
p7793
g0
(g1
g2
Ntp7794
Rp7795
(dp7796
g6
Nsg8
I00
sg9
Nsg15
NsbsVof
p7797
g0
(g1
g2
Ntp7798
Rp7799
(dp7800
g6
Nsg8
I00
sg9
Nsg15
NsbsVmeet
p7801
g0
(g1
g2
Ntp7802
Rp7803
(dp7804
g6
Nsg8
I00
sg9
Nsg15
NsbsVhigh
p7805
g0
(g1
g2
Ntp7806
Rp7807
(dp7808
g6
Nsg8
I00
sg9
Nsg15
NsbsVMr.
p7809
g0
(g1
g2
Ntp7810
Rp7811
(dp7812
g6
Nsg8
I00
sg9
Nsg15
NsbsVtag
p7813
g0
(g1
g2
Ntp7814
Rp7815
(dp7816
g6
Nsg8
I00
sg9
Nsg15
NsbsVsomething
p7817
g0
(g1
g2
Ntp7818
Rp7819
(dp7820
g6
Nsg8
I00
sg9
Nsg15
NsbsVboner
p7821
g0
(g1
g2
Ntp7822
Rp7823
(dp7824
g6
Nsg8
I00
sg9
Nsg15
NsbsVChristmas
p7825
g0
(g1
g2
Ntp7826
Rp7827
(dp7828
g6
Nsg8
I00
sg9
Nsg15
NsbsVsir
p7829
g0
(g1
g2
Ntp7830
Rp7831
(dp7832
g6
Nsg8
I00
sg9
Nsg15
NsbsVpermission
p7833
g0
(g1
g2
Ntp7834
Rp7835
(dp7836
g6
Nsg8
I00
sg9
Nsg15
NsbsVMm-hmm.
p7837
g0
(g1
g2
Ntp7838
Rp7839
(dp7840
g6
Nsg8
I00
sg9
Nsg15
NsbsVpoetry
p7841
g0
(g1
g2
Ntp7842
Rp7843
(dp7844
g6
Nsg8
I00
sg9
Nsg15
NsbsVWave
p7845
g0
(g1
g2
Ntp7846
Rp7847
(dp7848
g6
Nsg8
I00
sg9
Nsg15
NsbsVMOTHER
p7849
g0
(g1
g2
Ntp7850
Rp7851
(dp7852
g6
Nsg8
I00
sg9
Nsg15
Nsbsg2917
g0
(g1
g2
Ntp7853
Rp7854
(dp7855
g6
Nsg8
I00
sg9
Nsg15
Nsbsg417
g0
(g1
g2
Ntp7856
Rp7857
(dp7858
g6
Nsg8
I00
sg9
Nsg15
NsbsVRobin
p7859
g0
(g1
g2
Ntp7860
Rp7861
(dp7862
g6
Nsg8
I00
sg9
Nsg15
Nsbsg649
g0
(g1
g2
Ntp7863
Rp7864
(dp7865
g6
Nsg8
I00
sg9
Nsg15
NsbsVtied
p7866
g0
(g1
g2
Ntp7867
Rp7868
(dp7869
g6
Nsg8
I00
sg9
Nsg15
NsbsVfart
p7870
g0
(g1
g2
Ntp7871
Rp7872
(dp7873
g6
Nsg8
I00
sg9
Nsg15
NsbsVrealized
p7874
g0
(g1
g2
Ntp7875
Rp7876
(dp7877
g6
Nsg8
I00
sg9
Nsg15
NsbsVcounter
p7878
g0
(g1
g2
Ntp7879
Rp7880
(dp7881
g6
Nsg8
I00
sg9
Nsg15
NsbsVOne
p7882
g0
(g1
g2
Ntp7883
Rp7884
(dp7885
g6
Nsg8
I00
sg9
Nsg15
NsbsVbakery
p7886
g0
(g1
g2
Ntp7887
Rp7888
(dp7889
g6
Nsg8
I00
sg9
Nsg15
NsbsVout.
p7890
g0
(g1
g2
Ntp7891
Rp7892
(dp7893
g6
Nsg8
I00
sg9
Nsg15
NsbsVsoftware
p7894
g0
(g1
g2
Ntp7895
Rp7896
(dp7897
g6
Nsg8
I00
sg9
Nsg15
NsbsVsingsongy
p7898
g0
(g1
g2
Ntp7899
Rp7900
(dp7901
g6
Nsg8
I00
sg9
Nsg15
NsbsVmove
p7902
g0
(g1
g2
Ntp7903
Rp7904
(dp7905
g6
Nsg8
I00
sg9
Nsg15
NsbsVMinnesota
p7906
g0
(g1
g2
Ntp7907
Rp7908
(dp7909
g6
Nsg8
I00
sg9
Nsg15
NsbsVScooby
p7910
g0
(g1
g2
Ntp7911
Rp7912
(dp7913
g6
Nsg8
I00
sg9
Nsg15
NsbsVlooks
p7914
g0
(g1
g2
Ntp7915
Rp7916
(dp7917
g6
Nsg8
I00
sg9
Nsg15
NsbsVTrudy
p7918
g0
(g1
g2
Ntp7919
Rp7920
(dp7921
g6
Nsg8
I00
sg9
Nsg15
NsbsVflattering
p7922
g0
(g1
g2
Ntp7923
Rp7924
(dp7925
g6
Nsg8
I00
sg9
Nsg15
NsbsVMosley
p7926
g0
(g1
g2
Ntp7927
Rp7928
(dp7929
g6
Nsg8
I01
sg9
Nsg15
NsbsVHooker
p7930
g0
(g1
g2
Ntp7931
Rp7932
(dp7933
g6
Nsg8
I00
sg9
Nsg15
NsbsVperfect
p7934
g0
(g1
g2
Ntp7935
Rp7936
(dp7937
g6
Nsg8
I00
sg9
Nsg15
NsbsVkindergarten
p7938
g0
(g1
g2
Ntp7939
Rp7940
(dp7941
g6
Nsg8
I00
sg9
Nsg15
NsbsVspoiling
p7942
g0
(g1
g2
Ntp7943
Rp7944
(dp7945
g6
Nsg8
I00
sg9
Nsg15
NsbsVSparkles
p7946
g0
(g1
g2
Ntp7947
Rp7948
(dp7949
g6
Nsg8
I00
sg9
Nsg15
NsbsVholiday
p7950
g0
(g1
g2
Ntp7951
Rp7952
(dp7953
g6
Nsg8
I00
sg9
Nsg15
NsbsV2012
p7954
g0
(g1
g2
Ntp7955
Rp7956
(dp7957
g6
Nsg8
I00
sg9
Nsg15
NsbsVdad
p7958
g0
(g1
g2
Ntp7959
Rp7960
(dp7961
g6
Nsg8
I00
sg9
Nsg15
NsbsVmaterial
p7962
g0
(g1
g2
Ntp7963
Rp7964
(dp7965
g6
Nsg8
I00
sg9
Nsg15
NsbsVhate
p7966
g0
(g1
g2
Ntp7967
Rp7968
(dp7969
g6
Nsg8
I00
sg9
Nsg15
NsbsVAdam
p7970
g0
(g1
g2
Ntp7971
Rp7972
(dp7973
g6
Nsg8
I00
sg9
Nsg15
NsbsVlegendary
p7974
g0
(g1
g2
Ntp7975
Rp7976
(dp7977
g6
Nsg8
I00
sg9
Nsg15
NsbsVhands
p7978
g0
(g1
g2
Ntp7979
Rp7980
(dp7981
g6
Nsg8
I00
sg9
Nsg15
NsbsVfront
p7982
g0
(g1
g2
Ntp7983
Rp7984
(dp7985
g6
Nsg8
I00
sg9
Nsg15
Nsbsg5668
g0
(g1
g2
Ntp7986
Rp7987
(dp7988
g6
Nsg8
I00
sg9
Nsg15
NsbsVrealize
p7989
g0
(g1
g2
Ntp7990
Rp7991
(dp7992
g6
Nsg8
I00
sg9
Nsg15
Nsbsg641
g0
(g1
g2
Ntp7993
Rp7994
(dp7995
g6
Nsg8
I00
sg9
Nsg15
NsbsVfiddle
p7996
g0
(g1
g2
Ntp7997
Rp7998
(dp7999
g6
Nsg8
I00
sg9
Nsg15
Nsbsg425
g0
(g1
g2
Ntp8000
Rp8001
(dp8002
g6
Nsg8
I00
sg9
Nsg15
NsbsVtruth
p8003
g0
(g1
g2
Ntp8004
Rp8005
(dp8006
g6
Nsg8
I00
sg9
Nsg15
NsbsVLambs
p8007
g0
(g1
g2
Ntp8008
Rp8009
(dp8010
g6
Nsg8
I00
sg9
Nsg15
NsbsVshaking
p8011
g0
(g1
g2
Ntp8012
Rp8013
(dp8014
g6
Nsg8
I00
sg9
Nsg15
NsbsVglasses
p8015
g0
(g1
g2
Ntp8016
Rp8017
(dp8018
g6
Nsg8
I00
sg9
Nsg15
NsbsVdoing
p8019
g0
(g1
g2
Ntp8020
Rp8021
(dp8022
g6
Nsg8
I00
sg9
Nsg15
NsbsVchunk
p8023
g0
(g1
g2
Ntp8024
Rp8025
(dp8026
g6
Nsg8
I00
sg9
Nsg15
NsbsVparties
p8027
g0
(g1
g2
Ntp8028
Rp8029
(dp8030
g6
Nsg8
I00
sg9
Nsg15
NsbsVbooks
p8031
g0
(g1
g2
Ntp8032
Rp8033
(dp8034
g6
Nsg8
I00
sg9
Nsg15
NsbsVWendy
p8035
g0
(g1
g2
Ntp8036
Rp8037
(dp8038
g6
Nsg8
I00
sg9
Nsg15
NsbsVGayle
p8039
g0
(g1
g2
Ntp8040
Rp8041
(dp8042
g6
Nsg8
I00
sg9
Nsg15
NsbsVour
p8043
g0
(g1
g2
Ntp8044
Rp8045
(dp8046
g6
Nsg8
I00
sg9
Nsg15
NsbsVUh-huh.
p8047
g0
(g1
g2
Ntp8048
Rp8049
(dp8050
g6
Nsg8
I00
sg9
Nsg15
NsbsVspecial
p8051
g0
(g1
g2
Ntp8052
Rp8053
(dp8054
g6
Nsg8
I00
sg9
Nsg15
NsbsVout
p8055
g0
(g1
g2
Ntp8056
Rp8057
(dp8058
g6
Nsg8
I00
sg9
Nsg15
NsbsVstripper.
p8059
g0
(g1
g2
Ntp8060
Rp8061
(dp8062
g6
Nsg8
I00
sg9
Nsg15
NsbsVdon't.
p8063
g0
(g1
g2
Ntp8064
Rp8065
(dp8066
g6
Nsg8
I00
sg9
Nsg15
NsbsVtime.
p8067
g0
(g1
g2
Ntp8068
Rp8069
(dp8070
g6
Nsg8
I00
sg9
Nsg15
NsbsVmate
p8071
g0
(g1
g2
Ntp8072
Rp8073
(dp8074
g6
Nsg8
I00
sg9
Nsg15
NsbsVcause
p8075
g0
(g1
g2
Ntp8076
Rp8077
(dp8078
g6
Nsg8
I00
sg9
Nsg15
NsbsVmanicure.
p8079
g0
(g1
g2
Ntp8080
Rp8081
(dp8082
g6
Nsg8
I00
sg9
Nsg15
NsbsVred
p8083
g0
(g1
g2
Ntp8084
Rp8085
(dp8086
g6
Nsg8
I00
sg9
Nsg15
NsbsVcommon
p8087
g0
(g1
g2
Ntp8088
Rp8089
(dp8090
g6
Nsg8
I00
sg9
Nsg15
NsbsVshut
p8091
g0
(g1
g2
Ntp8092
Rp8093
(dp8094
g6
Nsg8
I00
sg9
Nsg15
NsbsVThis
p8095
g0
(g1
g2
Ntp8096
Rp8097
(dp8098
g6
Nsg8
I00
sg9
Nsg15
NsbsVclarify
p8099
g0
(g1
g2
Ntp8100
Rp8101
(dp8102
g6
Nsg8
I00
sg9
Nsg15
NsbsVapproaches
p8103
g0
(g1
g2
Ntp8104
Rp8105
(dp8106
g6
Nsg8
I00
sg9
Nsg15
NsbsVsurely
p8107
g0
(g1
g2
Ntp8108
Rp8109
(dp8110
g6
Nsg8
I00
sg9
Nsg15
NsbsVGun
p8111
g0
(g1
g2
Ntp8112
Rp8113
(dp8114
g6
Nsg8
I00
sg9
Nsg15
NsbsVprepare
p8115
g0
(g1
g2
Ntp8116
Rp8117
(dp8118
g6
Nsg8
I00
sg9
Nsg15
NsbsVcould
p8119
g0
(g1
g2
Ntp8120
Rp8121
(dp8122
g6
Nsg8
I00
sg9
Nsg15
NsbsVtimes
p8123
g0
(g1
g2
Ntp8124
Rp8125
(dp8126
g6
Nsg8
I00
sg9
Nsg15
NsbsVdesigned
p8127
g0
(g1
g2
Ntp8128
Rp8129
(dp8130
g6
Nsg8
I00
sg9
Nsg15
NsbsVfinest
p8131
g0
(g1
g2
Ntp8132
Rp8133
(dp8134
g6
Nsg8
I00
sg9
Nsg15
NsbsVspeaking.
p8135
g0
(g1
g2
Ntp8136
Rp8137
(dp8138
g6
Nsg8
I00
sg9
Nsg15
NsbsVbouquet
p8139
g0
(g1
g2
Ntp8140
Rp8141
(dp8142
g6
Nsg8
I00
sg9
Nsg15
NsbsVscene
p8143
g0
(g1
g2
Ntp8144
Rp8145
(dp8146
g6
Nsg8
I00
sg9
Nsg15
NsbsVbitch
p8147
g0
(g1
g2
Ntp8148
Rp8149
(dp8150
g6
Nsg8
I00
sg9
Nsg15
NsbsVowner
p8151
g0
(g1
g2
Ntp8152
Rp8153
(dp8154
g6
Nsg8
I00
sg9
Nsg15
NsbsVthree-way
p8155
g0
(g1
g2
Ntp8156
Rp8157
(dp8158
g6
Nsg8
I00
sg9
Nsg15
NsbsVtwo.
p8159
g0
(g1
g2
Ntp8160
Rp8161
(dp8162
g6
Nsg8
I00
sg9
Nsg15
NsbsVhas
p8163
g0
(g1
g2
Ntp8164
Rp8165
(dp8166
g6
Nsg8
I00
sg9
Nsg15
NsbsVguys
p8167
g0
(g1
g2
Ntp8168
Rp8169
(dp8170
g6
Nsg8
I00
sg9
Nsg15
Nsbsg5592
g0
(g1
g2
Ntp8171
Rp8172
(dp8173
g6
Nsg8
I00
sg9
Nsg15
NsbsVtheir
p8174
g0
(g1
g2
Ntp8175
Rp8176
(dp8177
g6
Nsg8
I00
sg9
Nsg15
NsbsVlot
p8178
g0
(g1
g2
Ntp8179
Rp8180
(dp8181
g6
Nsg8
I00
sg9
Nsg15
NsbsVchagrin
p8182
g0
(g1
g2
Ntp8183
Rp8184
(dp8185
g6
Nsg8
I00
sg9
Nsg15
NsbsVnobody
p8186
g0
(g1
g2
Ntp8187
Rp8188
(dp8189
g6
Nsg8
I00
sg9
Nsg15
NsbsVR
p8190
g0
(g1
g2
Ntp8191
Rp8192
(dp8193
g6
Nsg8
I00
sg9
Nsg15
NsbsVdifferent.
p8194
g0
(g1
g2
Ntp8195
Rp8196
(dp8197
g6
Nsg8
I00
sg9
Nsg15
NsbsVshampoo
p8198
g0
(g1
g2
Ntp8199
Rp8200
(dp8201
g6
Nsg8
I00
sg9
Nsg15
NsbsVbed
p8202
g0
(g1
g2
Ntp8203
Rp8204
(dp8205
g6
Nsg8
I00
sg9
Nsg15
NsbsVdecided
p8206
g0
(g1
g2
Ntp8207
Rp8208
(dp8209
g6
Nsg8
I00
sg9
Nsg15
NsbsVloves
p8210
g0
(g1
g2
Ntp8211
Rp8212
(dp8213
g6
Nsg8
I00
sg9
Nsg15
NsbsVcuriosity.
p8214
g0
(g1
g2
Ntp8215
Rp8216
(dp8217
g6
Nsg8
I00
sg9
Nsg15
NsbsVbet
p8218
g0
(g1
g2
Ntp8219
Rp8220
(dp8221
g6
Nsg8
I00
sg9
Nsg15
NsbsVwakes
p8222
g0
(g1
g2
Ntp8223
Rp8224
(dp8225
g6
Nsg8
I00
sg9
Nsg15
NsbsVtonight
p8226
g0
(g1
g2
Ntp8227
Rp8228
(dp8229
g6
Nsg8
I00
sg9
Nsg15
NsbsVOther
p8230
g0
(g1
g2
Ntp8231
Rp8232
(dp8233
g6
Nsg8
I00
sg9
Nsg15
NsbsVhave
p8234
g0
(g1
g2
Ntp8235
Rp8236
(dp8237
g6
Nsg8
I00
sg9
Nsg15
NsbsVneed
p8238
g0
(g1
g2
Ntp8239
Rp8240
(dp8241
g6
Nsg8
I00
sg9
Nsg15
NsbsVcan't.
p8242
g0
(g1
g2
Ntp8243
Rp8244
(dp8245
g6
Nsg8
I00
sg9
Nsg15
NsbsVturn
p8246
g0
(g1
g2
Ntp8247
Rp8248
(dp8249
g6
Nsg8
I00
sg9
Nsg15
NsbsVapparently
p8250
g0
(g1
g2
Ntp8251
Rp8252
(dp8253
g6
Nsg8
I00
sg9
Nsg15
NsbsVmustachioed
p8254
g0
(g1
g2
Ntp8255
Rp8256
(dp8257
g6
Nsg8
I00
sg9
Nsg15
NsbsVCheryl
p8258
g0
(g1
g2
Ntp8259
Rp8260
(dp8261
g6
Nsg8
I00
sg9
Nsg15
NsbsVdocuments
p8262
g0
(g1
g2
Ntp8263
Rp8264
(dp8265
g6
Nsg8
I00
sg9
Nsg15
NsbsVlivingroom
p8266
g0
(g1
g2
Ntp8267
Rp8268
(dp8269
g6
Nsg8
I00
sg9
Nsg15
NsbsVable
p8270
g0
(g1
g2
Ntp8271
Rp8272
(dp8273
g6
Nsg8
I00
sg9
Nsg15
NsbsVsexier
p8274
g0
(g1
g2
Ntp8275
Rp8276
(dp8277
g6
Nsg8
I00
sg9
Nsg15
NsbsVwhich
p8278
g0
(g1
g2
Ntp8279
Rp8280
(dp8281
g6
Nsg8
I00
sg9
Nsg15
NsbsVtruck
p8282
g0
(g1
g2
Ntp8283
Rp8284
(dp8285
g6
Nsg8
I00
sg9
Nsg15
NsbsVwho
p8286
g0
(g1
g2
Ntp8287
Rp8288
(dp8289
g6
Nsg8
I00
sg9
Nsg15
NsbsVYeah.
p8290
g0
(g1
g2
Ntp8291
Rp8292
(dp8293
g6
Nsg8
I00
sg9
Nsg15
NsbsVcourtesy
p8294
g0
(g1
g2
Ntp8295
Rp8296
(dp8297
g6
Nsg8
I00
sg9
Nsg15
NsbsVWithout
p8298
g0
(g1
g2
Ntp8299
Rp8300
(dp8301
g6
Nsg8
I00
sg9
Nsg15
NsbsVlunch.
p8302
g0
(g1
g2
Ntp8303
Rp8304
(dp8305
g6
Nsg8
I00
sg9
Nsg15
NsbsVSomebody
p8306
g0
(g1
g2
Ntp8307
Rp8308
(dp8309
g6
Nsg8
I00
sg9
Nsg15
NsbsVwhy
p8310
g0
(g1
g2
Ntp8311
Rp8312
(dp8313
g6
Nsg8
I00
sg9
Nsg15
NsbsVdiver.
p8314
g0
(g1
g2
Ntp8315
Rp8316
(dp8317
g6
Nsg8
I00
sg9
Nsg15
NsbsVPrisoners
p8318
g0
(g1
g2
Ntp8319
Rp8320
(dp8321
g6
Nsg8
I00
sg9
Nsg15
NsbsVstronger
p8322
g0
(g1
g2
Ntp8323
Rp8324
(dp8325
g6
Nsg8
I00
sg9
Nsg15
NsbsVlooked
p8326
g0
(g1
g2
Ntp8327
Rp8328
(dp8329
g6
Nsg8
I00
sg9
Nsg15
NsbsVmovie
p8330
g0
(g1
g2
Ntp8331
Rp8332
(dp8333
g6
Nsg8
I00
sg9
Nsg15
NsbsVEarth
p8334
g0
(g1
g2
Ntp8335
Rp8336
(dp8337
g6
Nsg8
I00
sg9
Nsg15
NsbsVskinny
p8338
g0
(g1
g2
Ntp8339
Rp8340
(dp8341
g6
Nsg8
I00
sg9
Nsg15
NsbsVsexy.
p8342
g0
(g1
g2
Ntp8343
Rp8344
(dp8345
g6
Nsg8
I00
sg9
Nsg15
NsbsVSaturday
p8346
g0
(g1
g2
Ntp8347
Rp8348
(dp8349
g6
Nsg8
I00
sg9
Nsg15
NsbsVfact
p8350
g0
(g1
g2
Ntp8351
Rp8352
(dp8353
g6
Nsg8
I00
sg9
Nsg15
NsbsVplease
p8354
g0
(g1
g2
Ntp8355
Rp8356
(dp8357
g6
Nsg8
I00
sg9
Nsg15
NsbsVbring
p8358
g0
(g1
g2
Ntp8359
Rp8360
(dp8361
g6
Nsg8
I00
sg9
Nsg15
NsbsVplanning
p8362
g0
(g1
g2
Ntp8363
Rp8364
(dp8365
g6
Nsg8
I00
sg9
Nsg15
NsbsVbedroom
p8366
g0
(g1
g2
Ntp8367
Rp8368
(dp8369
g6
Nsg8
I00
sg9
Nsg15
NsbsVPublic
p8370
g0
(g1
g2
Ntp8371
Rp8372
(dp8373
g6
Nsg8
I00
sg9
Nsg15
NsbsVRandy
p8374
g0
(g1
g2
Ntp8375
Rp8376
(dp8377
g6
Nsg8
I00
sg9
Nsg15
NsbsVbased
p8378
g0
(g1
g2
Ntp8379
Rp8380
(dp8381
g6
Nsg8
I00
sg9
Nsg15
NsbsVearned
p8382
g0
(g1
g2
Ntp8383
Rp8384
(dp8385
g6
Nsg8
I00
sg9
Nsg15
NsbsVdownstairs
p8386
g0
(g1
g2
Ntp8387
Rp8388
(dp8389
g6
Nsg8
I00
sg9
Nsg15
NsbsVshould
p8390
g0
(g1
g2
Ntp8391
Rp8392
(dp8393
g6
Nsg8
I00
sg9
Nsg15
NsbsVjam
p8394
g0
(g1
g2
Ntp8395
Rp8396
(dp8397
g6
Nsg8
I00
sg9
Nsg15
NsbsVtape
p8398
g0
(g1
g2
Ntp8399
Rp8400
(dp8401
g6
Nsg8
I00
sg9
Nsg15
NsbsVYork
p8402
g0
(g1
g2
Ntp8403
Rp8404
(dp8405
g6
Nsg8
I00
sg9
Nsg15
NsbsVMom
p8406
g0
(g1
g2
Ntp8407
Rp8408
(dp8409
g6
Nsg8
I00
sg9
Nsg15
NsbsVhope
p8410
g0
(g1
g2
Ntp8411
Rp8412
(dp8413
g6
Nsg8
I00
sg9
Nsg15
NsbsVmeant
p8414
g0
(g1
g2
Ntp8415
Rp8416
(dp8417
g6
Nsg8
I00
sg9
Nsg15
NsbsVButtercup
p8418
g0
(g1
g2
Ntp8419
Rp8420
(dp8421
g6
Nsg8
I00
sg9
Nsg15
NsbsVmeans
p8422
g0
(g1
g2
Ntp8423
Rp8424
(dp8425
g6
Nsg8
I00
sg9
Nsg15
NsbsVbeat
p8426
g0
(g1
g2
Ntp8427
Rp8428
(dp8429
g6
Nsg8
I00
sg9
Nsg15
NsbsVStella
p8430
g0
(g1
g2
Ntp8431
Rp8432
(dp8433
g6
Nsg8
I00
sg9
Nsg15
NsbsVbean
p8434
g0
(g1
g2
Ntp8435
Rp8436
(dp8437
g6
Nsg8
I00
sg9
Nsg15
NsbsVones
p8438
g0
(g1
g2
Ntp8439
Rp8440
(dp8441
g6
Nsg8
I00
sg9
Nsg15
NsbsVperfection
p8442
g0
(g1
g2
Ntp8443
Rp8444
(dp8445
g6
Nsg8
I00
sg9
Nsg15
NsbsVjoins
p8446
g0
(g1
g2
Ntp8447
Rp8448
(dp8449
g6
Nsg8
I00
sg9
Nsg15
NsbsVOnce
p8450
g0
(g1
g2
Ntp8451
Rp8452
(dp8453
g6
Nsg8
I00
sg9
Nsg15
NsbsVBecause
p8454
g0
(g1
g2
Ntp8455
Rp8456
(dp8457
g6
Nsg8
I00
sg9
Nsg15
NsbsVmarried
p8458
g0
(g1
g2
Ntp8459
Rp8460
(dp8461
g6
Nsg8
I00
sg9
Nsg15
NsbsVanything.
p8462
g0
(g1
g2
Ntp8463
Rp8464
(dp8465
g6
Nsg8
I00
sg9
Nsg15
NsbsVstuff
p8466
g0
(g1
g2
Ntp8467
Rp8468
(dp8469
g6
Nsg8
I00
sg9
Nsg15
NsbsVshe
p8470
g0
(g1
g2
Ntp8471
Rp8472
(dp8473
g6
Nsg8
I00
sg9
Nsg15
NsbsVamazing.
p8474
g0
(g1
g2
Ntp8475
Rp8476
(dp8477
g6
Nsg8
I00
sg9
Nsg15
NsbsVgrab
p8478
g0
(g1
g2
Ntp8479
Rp8480
(dp8481
g6
Nsg8
I00
sg9
Nsg15
NsbsVfixed
p8482
g0
(g1
g2
Ntp8483
Rp8484
(dp8485
g6
Nsg8
I00
sg9
Nsg15
NsbsVDully
p8486
g0
(g1
g2
Ntp8487
Rp8488
(dp8489
g6
Nsg8
I00
sg9
Nsg15
NsbsVbutt.
p8490
g0
(g1
g2
Ntp8491
Rp8492
(dp8493
g6
Nsg8
I00
sg9
Nsg15
NsbsVGazzola
p8494
g0
(g1
g2
Ntp8495
Rp8496
(dp8497
g6
Nsg8
I00
sg9
Nsg15
NsbsVcloses
p8498
g0
(g1
g2
Ntp8499
Rp8500
(dp8501
g6
Nsg8
I00
sg9
Nsg15
NsbsVtripping
p8502
g0
(g1
g2
Ntp8503
Rp8504
(dp8505
g6
Nsg8
I00
sg9
Nsg15
NsbsVGood
p8506
g0
(g1
g2
Ntp8507
Rp8508
(dp8509
g6
Nsg8
I00
sg9
Nsg15
Nsbsg441
g0
(g1
g2
Ntp8510
Rp8511
(dp8512
g6
Nsg8
I00
sg9
Nsg15
NsbsVmeatballs
p8513
g0
(g1
g2
Ntp8514
Rp8515
(dp8516
g6
Nsg8
I00
sg9
Nsg15
NsbsVwhale.
p8517
g0
(g1
g2
Ntp8518
Rp8519
(dp8520
g6
Nsg8
I00
sg9
Nsg15
NsbsVends
p8521
g0
(g1
g2
Ntp8522
Rp8523
(dp8524
g6
Nsg8
I00
sg9
Nsg15
NsbsVexplosive
p8525
g0
(g1
g2
Ntp8526
Rp8527
(dp8528
g6
Nsg8
I00
sg9
Nsg15
NsbsVuse
p8529
g0
(g1
g2
Ntp8530
Rp8531
(dp8532
g6
Nsg8
I00
sg9
Nsg15
NsbsVjob
p8533
g0
(g1
g2
Ntp8534
Rp8535
(dp8536
g6
Nsg8
I00
sg9
Nsg15
NsbsV\u266a\u266a
p8537
g0
(g1
g2
Ntp8538
Rp8539
(dp8540
g6
Nsg8
I00
sg9
Nsg15
Nsbsg2913
g0
(g1
g2
Ntp8541
Rp8542
(dp8543
g6
Nsg8
I00
sg9
Nsg15
NsbsVsupport..
p8544
g0
(g1
g2
Ntp8545
Rp8546
(dp8547
g6
Nsg8
I00
sg9
Nsg15
NsbsVthank
p8548
g0
(g1
g2
Ntp8549
Rp8550
(dp8551
g6
Nsg8
I00
sg9
Nsg15
NsbsVhits
p8552
g0
(g1
g2
Ntp8553
Rp8554
(dp8555
g6
Nsg8
I00
sg9
Nsg15
NsbsVjoke
p8556
g0
(g1
g2
Ntp8557
Rp8558
(dp8559
g6
Nsg8
I00
sg9
Nsg15
NsbsVtaking
p8560
g0
(g1
g2
Ntp8561
Rp8562
(dp8563
g6
Nsg8
I00
sg9
Nsg15
NsbsVtrips
p8564
g0
(g1
g2
Ntp8565
Rp8566
(dp8567
g6
Nsg8
I00
sg9
Nsg15
NsbsVadmit
p8568
g0
(g1
g2
Ntp8569
Rp8570
(dp8571
g6
Nsg8
I00
sg9
Nsg15
NsbsVSparkles.
p8572
g0
(g1
g2
Ntp8573
Rp8574
(dp8575
g6
Nsg8
I00
sg9
Nsg15
NsbsVclamshell
p8576
g0
(g1
g2
Ntp8577
Rp8578
(dp8579
g6
Nsg8
I00
sg9
Nsg15
NsbsVHer
p8580
g0
(g1
g2
Ntp8581
Rp8582
(dp8583
g6
Nsg8
I00
sg9
Nsg15
NsbsVtoilet
p8584
g0
(g1
g2
Ntp8585
Rp8586
(dp8587
g6
Nsg8
I00
sg9
Nsg15
NsbsVwall
p8588
g0
(g1
g2
Ntp8589
Rp8590
(dp8591
g6
Nsg8
I00
sg9
Nsg15
NsbsVca
p8592
g0
(g1
g2
Ntp8593
Rp8594
(dp8595
g6
Nsg8
I00
sg9
Nsg15
NsbsVGirls
p8596
g0
(g1
g2
Ntp8597
Rp8598
(dp8599
g6
Nsg8
I00
sg9
Nsg15
NsbsVHey
p8600
g0
(g1
g2
Ntp8601
Rp8602
(dp8603
g6
Nsg8
I00
sg9
Nsg15
NsbsVwalk
p8604
g0
(g1
g2
Ntp8605
Rp8606
(dp8607
g6
Nsg8
I00
sg9
Nsg15
NsbsVFinally
p8608
g0
(g1
g2
Ntp8609
Rp8610
(dp8611
g6
Nsg8
I00
sg9
Nsg15
Nsbsg5560
g0
(g1
g2
Ntp8612
Rp8613
(dp8614
g6
Nsg8
I00
sg9
Nsg15
NsbsVtable
p8615
g0
(g1
g2
Ntp8616
Rp8617
(dp8618
g6
Nsg8
I00
sg9
Nsg15
NsbsVLily
p8619
g0
(g1
g2
Ntp8620
Rp8621
(dp8622
g6
Nsg8
I00
sg9
Nsg15
NsbsVLoretta
p8623
g0
(g1
g2
Ntp8624
Rp8625
(dp8626
g6
Nsg8
I00
sg9
Nsg15
NsbsVDVR
p8627
g0
(g1
g2
Ntp8628
Rp8629
(dp8630
g6
Nsg8
I00
sg9
Nsg15
NsbsVGet
p8631
g0
(g1
g2
Ntp8632
Rp8633
(dp8634
g6
Nsg8
I00
sg9
Nsg15
NsbsVcharts
p8635
g0
(g1
g2
Ntp8636
Rp8637
(dp8638
g6
Nsg8
I00
sg9
Nsg15
Nsbsg5604
g0
(g1
g2
Ntp8639
Rp8640
(dp8641
g6
Nsg8
I00
sg9
Nsg15
NsbsVwaste
p8642
g0
(g1
g2
Ntp8643
Rp8644
(dp8645
g6
Nsg8
I00
sg9
Nsg15
NsbsVhome.
p8646
g0
(g1
g2
Ntp8647
Rp8648
(dp8649
g6
Nsg8
I00
sg9
Nsg15
NsbsVnickel
p8650
g0
(g1
g2
Ntp8651
Rp8652
(dp8653
g6
Nsg8
I00
sg9
Nsg15
NsbsVmoved
p8654
g0
(g1
g2
Ntp8655
Rp8656
(dp8657
g6
Nsg8
I00
sg9
Nsg15
NsbsVfinished
p8658
g0
(g1
g2
Ntp8659
Rp8660
(dp8661
g6
Nsg8
I00
sg9
Nsg15
NsbsVcovered
p8662
g0
(g1
g2
Ntp8663
Rp8664
(dp8665
g6
Nsg8
I00
sg9
Nsg15
NsbsVsmoking
p8666
g0
(g1
g2
Ntp8667
Rp8668
(dp8669
g6
Nsg8
I00
sg9
Nsg15
NsbsVpresent
p8670
g0
(g1
g2
Ntp8671
Rp8672
(dp8673
g6
Nsg8
I00
sg9
Nsg15
NsbsVvolunteer
p8674
g0
(g1
g2
Ntp8675
Rp8676
(dp8677
g6
Nsg8
I00
sg9
Nsg15
NsbsVAnd
p8678
g0
(g1
g2
Ntp8679
Rp8680
(dp8681
g6
Nsg8
I00
sg9
Nsg15
NsbsVlaser
p8682
g0
(g1
g2
Ntp8683
Rp8684
(dp8685
g6
Nsg8
I00
sg9
Nsg15
NsbsVlookalike
p8686
g0
(g1
g2
Ntp8687
Rp8688
(dp8689
g6
Nsg8
I00
sg9
Nsg15
NsbsVJillian
p8690
g0
(g1
g2
Ntp8691
Rp8692
(dp8693
g6
Nsg8
I00
sg9
Nsg15
NsbsVNumber
p8694
g0
(g1
g2
Ntp8695
Rp8696
(dp8697
g6
Nsg8
I00
sg9
Nsg15
NsbsVwill
p8698
g0
(g1
g2
Ntp8699
Rp8700
(dp8701
g6
Nsg8
I00
sg9
Nsg15
NsbsVAny
p8702
g0
(g1
g2
Ntp8703
Rp8704
(dp8705
g6
Nsg8
I00
sg9
Nsg15
NsbsVhairpiece
p8706
g0
(g1
g2
Ntp8707
Rp8708
(dp8709
g6
Nsg8
I00
sg9
Nsg15
Nsbsg5529
g0
(g1
g2
Ntp8710
Rp8711
(dp8712
g6
Nsg8
I00
sg9
Nsg15
NsbsValmost
p8713
g0
(g1
g2
Ntp8714
Rp8715
(dp8716
g6
Nsg8
I00
sg9
Nsg15
NsbsVGranted
p8717
g0
(g1
g2
Ntp8718
Rp8719
(dp8720
g6
Nsg8
I00
sg9
Nsg15
NsbsVintense.Broken
p8721
g0
(g1
g2
Ntp8722
Rp8723
(dp8724
g6
Nsg8
I00
sg9
Nsg15
NsbsVYou
p8725
g0
(g1
g2
Ntp8726
Rp8727
(dp8728
g6
Nsg8
I00
sg9
Nsg15
Nsbsg5571
g0
(g1
g2
Ntp8729
Rp8730
(dp8731
g6
Nsg8
I00
sg9
Nsg15
NsbsVgeneric
p8732
g0
(g1
g2
Ntp8733
Rp8734
(dp8735
g6
Nsg8
I00
sg9
Nsg15
NsbsVpattern.
p8736
g0
(g1
g2
Ntp8737
Rp8738
(dp8739
g6
Nsg8
I00
sg9
Nsg15
NsbsVBear
p8740
g0
(g1
g2
Ntp8741
Rp8742
(dp8743
g6
Nsg8
I00
sg9
Nsg15
NsbsVparty
p8744
g0
(g1
g2
Ntp8745
Rp8746
(dp8747
g6
Nsg8
I00
sg9
Nsg15
NsbsVfinite
p8748
g0
(g1
g2
Ntp8749
Rp8750
(dp8751
g6
Nsg8
I00
sg9
Nsg15
NsbsVpractice
p8752
g0
(g1
g2
Ntp8753
Rp8754
(dp8755
g6
Nsg8
I00
sg9
Nsg15
NsbsVbald
p8756
g0
(g1
g2
Ntp8757
Rp8758
(dp8759
g6
Nsg8
I00
sg9
Nsg15
NsbsVeffect
p8760
g0
(g1
g2
Ntp8761
Rp8762
(dp8763
g6
Nsg8
I00
sg9
Nsg15
NsbsVbinoculars
p8764
g0
(g1
g2
Ntp8765
Rp8766
(dp8767
g6
Nsg8
I00
sg9
Nsg15
NsbsVstudent
p8768
g0
(g1
g2
Ntp8769
Rp8770
(dp8771
g6
Nsg8
I00
sg9
Nsg15
NsbsVThicke
p8772
g0
(g1
g2
Ntp8773
Rp8774
(dp8775
g6
Nsg8
I01
sg9
Nsg15
NsbsVoff
p8776
g0
(g1
g2
Ntp8777
Rp8778
(dp8779
g6
Nsg8
I00
sg9
Nsg15
NsbsVneural
p8780
g0
(g1
g2
Ntp8781
Rp8782
(dp8783
g6
Nsg8
I00
sg9
Nsg15
NsbsVi
p8784
g0
(g1
g2
Ntp8785
Rp8786
(dp8787
g6
Nsg8
I00
sg9
Nsg15
NsbsVwell
p8788
g0
(g1
g2
Ntp8789
Rp8790
(dp8791
g6
Nsg8
I00
sg9
Nsg15
NsbsVfighting
p8792
g0
(g1
g2
Ntp8793
Rp8794
(dp8795
g6
Nsg8
I00
sg9
Nsg15
NsbsVthought
p8796
g0
(g1
g2
Ntp8797
Rp8798
(dp8799
g6
Nsg8
I00
sg9
Nsg15
NsbsVcommand
p8800
g0
(g1
g2
Ntp8801
Rp8802
(dp8803
g6
Nsg8
I00
sg9
Nsg15
NsbsVHave
p8804
g0
(g1
g2
Ntp8805
Rp8806
(dp8807
g6
Nsg8
I00
sg9
Nsg15
NsbsVsarcastic-quotation-marks
p8808
g0
(g1
g2
Ntp8809
Rp8810
(dp8811
g6
Nsg8
I00
sg9
Nsg15
NsbsVbreaker
p8812
g0
(g1
g2
Ntp8813
Rp8814
(dp8815
g6
Nsg8
I00
sg9
Nsg15
NsbsVCan
p8816
g0
(g1
g2
Ntp8817
Rp8818
(dp8819
g6
Nsg8
I00
sg9
Nsg15
NsbsVOoh
p8820
g0
(g1
g2
Ntp8821
Rp8822
(dp8823
g6
Nsg8
I00
sg9
Nsg15
NsbsVnicknames
p8824
g0
(g1
g2
Ntp8825
Rp8826
(dp8827
g6
Nsg8
I00
sg9
Nsg15
NsbsVless
p8828
g0
(g1
g2
Ntp8829
Rp8830
(dp8831
g6
Nsg8
I00
sg9
Nsg15
NsbsVgoing.
p8832
g0
(g1
g2
Ntp8833
Rp8834
(dp8835
g6
Nsg8
I00
sg9
Nsg15
NsbsVMother
p8836
g0
(g1
g2
Ntp8837
Rp8838
(dp8839
g6
Nsg8
I00
sg9
Nsg15
NsbsVOh.
p8840
g0
(g1
g2
Ntp8841
Rp8842
(dp8843
g6
Nsg8
I00
sg9
Nsg15
NsbsVwork.
p8844
g0
(g1
g2
Ntp8845
Rp8846
(dp8847
g6
Nsg8
I00
sg9
Nsg15
NsbsVpoint
p8848
g0
(g1
g2
Ntp8849
Rp8850
(dp8851
g6
Nsg8
I00
sg9
Nsg15
NsbsVbench
p8852
g0
(g1
g2
Ntp8853
Rp8854
(dp8855
g6
Nsg8
I00
sg9
Nsg15
NsbsVbook
p8856
g0
(g1
g2
Ntp8857
Rp8858
(dp8859
g6
Nsg8
I00
sg9
Nsg15
NsbsVsize.
p8860
g0
(g1
g2
Ntp8861
Rp8862
(dp8863
g6
Nsg8
I00
sg9
Nsg15
NsbsVLazar
p8864
g0
(g1
g2
Ntp8865
Rp8866
(dp8867
g6
Nsg8
I00
sg9
Nsg15
NsbsVfive
p8868
g0
(g1
g2
Ntp8869
Rp8870
(dp8871
g6
Nsg8
I00
sg9
Nsg15
NsbsVknow
p8872
g0
(g1
g2
Ntp8873
Rp8874
(dp8875
g6
Nsg8
I00
sg9
Nsg15
NsbsVfacial
p8876
g0
(g1
g2
Ntp8877
Rp8878
(dp8879
g6
Nsg8
I00
sg9
Nsg15
NsbsVpies
p8880
g0
(g1
g2
Ntp8881
Rp8882
(dp8883
g6
Nsg8
I00
sg9
Nsg15
NsbsVEngland
p8884
g0
(g1
g2
Ntp8885
Rp8886
(dp8887
g6
Nsg8
I00
sg9
Nsg15
NsbsVlike
p8888
g0
(g1
g2
Ntp8889
Rp8890
(dp8891
g6
Nsg8
I00
sg9
Nsg15
NsbsVonion
p8892
g0
(g1
g2
Ntp8893
Rp8894
(dp8895
g6
Nsg8
I00
sg9
Nsg15
NsbsVCreed
p8896
g0
(g1
g2
Ntp8897
Rp8898
(dp8899
g6
Nsg8
I00
sg9
Nsg15
NsbsVfingerprints
p8900
g0
(g1
g2
Ntp8901
Rp8902
(dp8903
g6
Nsg8
I00
sg9
Nsg15
NsbsVloser
p8904
g0
(g1
g2
Ntp8905
Rp8906
(dp8907
g6
Nsg8
I00
sg9
Nsg15
NsbsVlose
p8908
g0
(g1
g2
Ntp8909
Rp8910
(dp8911
g6
Nsg8
I00
sg9
Nsg15
NsbsVchick
p8912
g0
(g1
g2
Ntp8913
Rp8914
(dp8915
g6
Nsg8
I00
sg9
Nsg15
NsbsVshed
p8916
g0
(g1
g2
Ntp8917
Rp8918
(dp8919
g6
Nsg8
I00
sg9
Nsg15
NsbsVbecause
p8920
g0
(g1
g2
Ntp8921
Rp8922
(dp8923
g6
Nsg8
I00
sg9
Nsg15
NsbsVsmoothly
p8924
g0
(g1
g2
Ntp8925
Rp8926
(dp8927
g6
Nsg8
I00
sg9
Nsg15
NsbsVscared
p8928
g0
(g1
g2
Ntp8929
Rp8930
(dp8931
g6
Nsg8
I00
sg9
Nsg15
NsbsVlibrary
p8932
g0
(g1
g2
Ntp8933
Rp8934
(dp8935
g6
Nsg8
I00
sg9
Nsg15
NsbsVish
p8936
g0
(g1
g2
Ntp8937
Rp8938
(dp8939
g6
Nsg8
I00
sg9
Nsg15
NsbsVhome
p8940
g0
(g1
g2
Ntp8941
Rp8942
(dp8943
g6
Nsg8
I00
sg9
Nsg15
NsbsVtalk.
p8944
g0
(g1
g2
Ntp8945
Rp8946
(dp8947
g6
Nsg8
I00
sg9
Nsg15
NsbsVleaf
p8948
g0
(g1
g2
Ntp8949
Rp8950
(dp8951
g6
Nsg8
I00
sg9
Nsg15
NsbsVlead
p8952
g0
(g1
g2
Ntp8953
Rp8954
(dp8955
g6
Nsg8
I00
sg9
Nsg15
NsbsVleak
p8956
g0
(g1
g2
Ntp8957
Rp8958
(dp8959
g6
Nsg8
I00
sg9
Nsg15
NsbsVdoes
p8960
g0
(g1
g2
Ntp8961
Rp8962
(dp8963
g6
Nsg8
I00
sg9
Nsg15
NsbsVassuming
p8964
g0
(g1
g2
Ntp8965
Rp8966
(dp8967
g6
Nsg8
I00
sg9
Nsg15
NsbsVgreat-grandfather
p8968
g0
(g1
g2
Ntp8969
Rp8970
(dp8971
g6
Nsg8
I00
sg9
Nsg15
NsbsV?
p8972
g0
(g1
g2
Ntp8973
Rp8974
(dp8975
g6
Nsg8
I00
sg9
Nsg15
NsbsVBPEGs
p8976
g0
(g1
g2
Ntp8977
Rp8978
(dp8979
g6
Nsg8
I00
sg9
Nsg15
NsbsVschedule
p8980
g0
(g1
g2
Ntp8981
Rp8982
(dp8983
g6
Nsg8
I00
sg9
Nsg15
NsbsVUm
p8984
g0
(g1
g2
Ntp8985
Rp8986
(dp8987
g6
Nsg8
I00
sg9
Nsg15
Nsbsg461
g0
(g1
g2
Ntp8988
Rp8989
(dp8990
g6
Nsg8
I00
sg9
Nsg15
NsbsVUh
p8991
g0
(g1
g2
Ntp8992
Rp8993
(dp8994
g6
Nsg8
I00
sg9
Nsg15
NsbsVhiding
p8995
g0
(g1
g2
Ntp8996
Rp8997
(dp8998
g6
Nsg8
I00
sg9
Nsg15
NsbsVchain.
p8999
g0
(g1
g2
Ntp9000
Rp9001
(dp9002
g6
Nsg8
I00
sg9
Nsg15
NsbsVabout
p9003
g0
(g1
g2
Ntp9004
Rp9005
(dp9006
g6
Nsg8
I00
sg9
Nsg15
NsbsVrare
p9007
g0
(g1
g2
Ntp9008
Rp9009
(dp9010
g6
Nsg8
I00
sg9
Nsg15
NsbsVgetting
p9011
g0
(g1
g2
Ntp9012
Rp9013
(dp9014
g6
Nsg8
I00
sg9
Nsg15
NsbsVuniverse
p9015
g0
(g1
g2
Ntp9016
Rp9017
(dp9018
g6
Nsg8
I00
sg9
Nsg15
NsbsVin.
p9019
g0
(g1
g2
Ntp9020
Rp9021
(dp9022
g6
Nsg8
I00
sg9
Nsg15
NsbsVperky
p9023
g0
(g1
g2
Ntp9024
Rp9025
(dp9026
g6
Nsg8
I00
sg9
Nsg15
NsbsVMayor
p9027
g0
(g1
g2
Ntp9028
Rp9029
(dp9030
g6
Nsg8
I00
sg9
Nsg15
NsbsVReally
p9031
g0
(g1
g2
Ntp9032
Rp9033
(dp9034
g6
Nsg8
I00
sg9
Nsg15
NsbsVkinda
p9035
g0
(g1
g2
Ntp9036
Rp9037
(dp9038
g6
Nsg8
I00
sg9
Nsg15
NsbsVowe
p9039
g0
(g1
g2
Ntp9040
Rp9041
(dp9042
g6
Nsg8
I00
sg9
Nsg15
NsbsVTwo
p9043
g0
(g1
g2
Ntp9044
Rp9045
(dp9046
g6
Nsg8
I00
sg9
Nsg15
NsbsVmushrooms
p9047
g0
(g1
g2
Ntp9048
Rp9049
(dp9050
g6
Nsg8
I00
sg9
Nsg15
NsbsVtackle
p9051
g0
(g1
g2
Ntp9052
Rp9053
(dp9054
g6
Nsg8
I00
sg9
Nsg15
NsbsVpromise
p9055
g0
(g1
g2
Ntp9056
Rp9057
(dp9058
g6
Nsg8
I00
sg9
Nsg15
NsbsVsecretive
p9059
g0
(g1
g2
Ntp9060
Rp9061
(dp9062
g6
Nsg8
I00
sg9
Nsg15
NsbsVmere
p9063
g0
(g1
g2
Ntp9064
Rp9065
(dp9066
g6
Nsg8
I00
sg9
Nsg15
NsbsVAlexa
p9067
g0
(g1
g2
Ntp9068
Rp9069
(dp9070
g6
Nsg8
I00
sg9
Nsg15
NsbsVboobs.
p9071
g0
(g1
g2
Ntp9072
Rp9073
(dp9074
g6
Nsg8
I00
sg9
Nsg15
NsbsVappy
p9075
g0
(g1
g2
Ntp9076
Rp9077
(dp9078
g6
Nsg8
I00
sg9
Nsg15
NsbsV*
p9079
g0
(g1
g2
Ntp9080
Rp9081
(dp9082
g6
Nsg8
I00
sg9
Nsg15
NsbsVkidding
p9083
g0
(g1
g2
Ntp9084
Rp9085
(dp9086
g6
Nsg8
I00
sg9
Nsg15
NsbsV9.6
p9087
g0
(g1
g2
Ntp9088
Rp9089
(dp9090
g6
Nsg8
I00
sg9
Nsg15
NsbsVTreasure
p9091
g0
(g1
g2
Ntp9092
Rp9093
(dp9094
g6
Nsg8
I00
sg9
Nsg15
NsbsVbus
p9095
g0
(g1
g2
Ntp9096
Rp9097
(dp9098
g6
Nsg8
I00
sg9
Nsg15
NsbsVWell
p9099
g0
(g1
g2
Ntp9100
Rp9101
(dp9102
g6
Nsg8
I00
sg9
Nsg15
NsbsVbut
p9103
g0
(g1
g2
Ntp9104
Rp9105
(dp9106
g6
Nsg8
I00
sg9
Nsg15
NsbsVExcept
p9107
g0
(g1
g2
Ntp9108
Rp9109
(dp9110
g6
Nsg8
I00
sg9
Nsg15
NsbsVhi
p9111
g0
(g1
g2
Ntp9112
Rp9113
(dp9114
g6
Nsg8
I00
sg9
Nsg15
NsbsVgood-bye
p9115
g0
(g1
g2
Ntp9116
Rp9117
(dp9118
g6
Nsg8
I00
sg9
Nsg15
NsbsVeat
p9119
g0
(g1
g2
Ntp9120
Rp9121
(dp9122
g6
Nsg8
I00
sg9
Nsg15
NsbsVhe
p9123
g0
(g1
g2
Ntp9124
Rp9125
(dp9126
g6
Nsg8
I00
sg9
Nsg15
NsbsVsucked.
p9127
g0
(g1
g2
Ntp9128
Rp9129
(dp9130
g6
Nsg8
I00
sg9
Nsg15
NsbsVmade
p9131
g0
(g1
g2
Ntp9132
Rp9133
(dp9134
g6
Nsg8
I00
sg9
Nsg15
NsbsVdangerous
p9135
g0
(g1
g2
Ntp9136
Rp9137
(dp9138
g6
Nsg8
I00
sg9
Nsg15
NsbsVTed
p9139
g0
(g1
g2
Ntp9140
Rp9141
(dp9142
g6
g344
sg8
I00
sg9
(dp9143
Vand
p9144
g0
(g1
g2
Ntp9145
Rp9146
(dp9147
g6
Nsg8
I00
sg9
Nsg15
NsbsV!
p9148
g0
(g1
g2
Ntp9149
Rp9150
(dp9151
g6
Nsg8
I00
sg9
Nsg15
NsbsV``
p9152
g0
(g1
g2
Ntp9153
Rp9154
(dp9155
g6
Nsg8
I00
sg9
Nsg15
NsbsVto
p9156
g0
(g1
g2
Ntp9157
Rp9158
(dp9159
g6
Nsg8
I00
sg9
Nsg15
NsbsVthat
p9160
g0
(g1
g2
Ntp9161
Rp9162
(dp9163
g6
Nsg8
I00
sg9
Nsg15
NsbsVdid
p9164
g0
(g1
g2
Ntp9165
Rp9166
(dp9167
g6
Nsg8
I00
sg9
Nsg15
NsbsV(
p9168
g0
(g1
g2
Ntp9169
Rp9170
(dp9171
g6
Nsg8
I00
sg9
Nsg15
NsbsVinto
p9172
g0
(g1
g2
Ntp9173
Rp9174
(dp9175
g6
Nsg8
I00
sg9
Nsg15
NsbsVwhen
p9176
g0
(g1
g2
Ntp9177
Rp9178
(dp9179
g6
Nsg8
I00
sg9
Nsg15
NsbsV,
p9180
g0
(g1
g2
Ntp9181
Rp9182
(dp9183
g6
Nsg8
I00
sg9
Nsg15
NsbsVmet
p9184
g0
(g1
g2
Ntp9185
Rp9186
(dp9187
g6
Nsg8
I00
sg9
Nsg15
NsbsVsee
p9188
g0
(g1
g2
Ntp9189
Rp9190
(dp9191
g6
Nsg8
I00
sg9
Nsg15
NsbsVFuture
p9192
g0
(g1
g2
Ntp9193
Rp9194
(dp9195
g6
Nsg8
I01
sg9
Nsg15
Nsbsg44
g0
(g1
g2
Ntp9196
Rp9197
(dp9198
g6
Nsg8
I00
sg9
Nsg15
Nsbsg4906
g0
(g1
g2
Ntp9199
Rp9200
(dp9201
g6
Nsg8
I00
sg9
Nsg15
NsbsV...
p9202
g0
(g1
g2
Ntp9203
Rp9204
(dp9205
g6
Nsg8
I00
sg9
Nsg15
NsbsVbrings
p9206
g0
(g1
g2
Ntp9207
Rp9208
(dp9209
g6
Nsg8
I00
sg9
Nsg15
NsbsV:
p9210
g0
(g1
g2
Ntp9211
Rp9212
(dp9213
g6
Nsg8
I00
sg9
Nsg15
Nsbsg5492
g0
(g1
g2
Ntp9214
Rp9215
(dp9216
g6
Nsg8
I00
sg9
Nsg15
NsbsVas
p9217
g0
(g1
g2
Ntp9218
Rp9219
(dp9220
g6
Nsg8
I00
sg9
Nsg15
Nsbsg1863
g0
(g1
g2
Ntp9221
Rp9222
(dp9223
g6
Nsg8
I00
sg9
Nsg15
Nsbssg15
NsbsVWalk
p9224
g0
(g1
g2
Ntp9225
Rp9226
(dp9227
g6
Nsg8
I00
sg9
Nsg15
NsbsVconvince
p9228
g0
(g1
g2
Ntp9229
Rp9230
(dp9231
g6
Nsg8
I00
sg9
Nsg15
NsbsVtacos.
p9232
g0
(g1
g2
Ntp9233
Rp9234
(dp9235
g6
Nsg8
I00
sg9
Nsg15
NsbsVcake
p9236
g0
(g1
g2
Ntp9237
Rp9238
(dp9239
g6
Nsg8
I00
sg9
Nsg15
NsbsVproblem
p9240
g0
(g1
g2
Ntp9241
Rp9242
(dp9243
g6
Nsg8
I00
sg9
Nsg15
NsbsVminutes
p9244
g0
(g1
g2
Ntp9245
Rp9246
(dp9247
g6
Nsg8
I00
sg9
Nsg15
NsbsVtrying.
p9248
g0
(g1
g2
Ntp9249
Rp9250
(dp9251
g6
Nsg8
I00
sg9
Nsg15
NsbsVSmirnoff
p9252
g0
(g1
g2
Ntp9253
Rp9254
(dp9255
g6
Nsg8
I00
sg9
Nsg15
NsbsVUh-uh.
p9256
g0
(g1
g2
Ntp9257
Rp9258
(dp9259
g6
Nsg8
I00
sg9
Nsg15
NsbsVkissed
p9260
g0
(g1
g2
Ntp9261
Rp9262
(dp9263
g6
Nsg8
I00
sg9
Nsg15
NsbsVhappen
p9264
g0
(g1
g2
Ntp9265
Rp9266
(dp9267
g6
Nsg8
I00
sg9
Nsg15
NsbsVEspecially
p9268
g0
(g1
g2
Ntp9269
Rp9270
(dp9271
g6
Nsg8
I00
sg9
Nsg15
NsbsVBro
p9272
g0
(g1
g2
Ntp9273
Rp9274
(dp9275
g6
Nsg8
I00
sg9
Nsg15
NsbsVcompared
p9276
g0
(g1
g2
Ntp9277
Rp9278
(dp9279
g6
Nsg8
I00
sg9
Nsg15
NsbsV'll
p9280
g0
(g1
g2
Ntp9281
Rp9282
(dp9283
g6
Nsg8
I00
sg9
Nsg15
NsbsVdressed
p9284
g0
(g1
g2
Ntp9285
Rp9286
(dp9287
g6
Nsg8
I00
sg9
Nsg15
NsbsVNever
p9288
g0
(g1
g2
Ntp9289
Rp9290
(dp9291
g6
Nsg8
I00
sg9
Nsg15
NsbsVother
p9292
g0
(g1
g2
Ntp9293
Rp9294
(dp9295
g6
Nsg8
I00
sg9
Nsg15
NsbsVPlease.
p9296
g0
(g1
g2
Ntp9297
Rp9298
(dp9299
g6
Nsg8
I00
sg9
Nsg15
NsbsVboob
p9300
g0
(g1
g2
Ntp9301
Rp9302
(dp9303
g6
Nsg8
I00
sg9
Nsg15
Nsbsg5622
g0
(g1
g2
Ntp9304
Rp9305
(dp9306
g6
Nsg8
I00
sg9
Nsg15
NsbsVagain.
p9307
g0
(g1
g2
Ntp9308
Rp9309
(dp9310
g6
Nsg8
I00
sg9
Nsg15
NsbsVyes.
p9311
g0
(g1
g2
Ntp9312
Rp9313
(dp9314
g6
Nsg8
I00
sg9
Nsg15
NsbsVclass
p9315
g0
(g1
g2
Ntp9316
Rp9317
(dp9318
g6
Nsg8
I00
sg9
Nsg15
NsbsVstay
p9319
g0
(g1
g2
Ntp9320
Rp9321
(dp9322
g6
Nsg8
I00
sg9
Nsg15
Nsbsg661
g0
(g1
g2
Ntp9323
Rp9324
(dp9325
g6
Nsg8
I00
sg9
Nsg15
NsbsVFuture
p9326
g0
(g1
g2
Ntp9327
Rp9328
(dp9329
g6
Nsg8
I00
sg9
Nsg15
NsbsVaugmentation
p9330
g0
(g1
g2
Ntp9331
Rp9332
(dp9333
g6
Nsg8
I00
sg9
Nsg15
NsbsVpathways
p9334
g0
(g1
g2
Ntp9335
Rp9336
(dp9337
g6
Nsg8
I00
sg9
Nsg15
NsbsVMorgan
p9338
g0
(g1
g2
Ntp9339
Rp9340
(dp9341
g6
Nsg8
I00
sg9
Nsg15
NsbsVAct
p9342
g0
(g1
g2
Ntp9343
Rp9344
(dp9345
g6
Nsg8
I00
sg9
Nsg15
NsbsVfriends
p9346
g0
(g1
g2
Ntp9347
Rp9348
(dp9349
g6
Nsg8
I00
sg9
Nsg15
NsbsVsix-year-old
p9350
g0
(g1
g2
Ntp9351
Rp9352
(dp9353
g6
Nsg8
I00
sg9
Nsg15
NsbsVshredder
p9354
g0
(g1
g2
Ntp9355
Rp9356
(dp9357
g6
Nsg8
I00
sg9
Nsg15
NsbsVghost
p9358
g0
(g1
g2
Ntp9359
Rp9360
(dp9361
g6
Nsg8
I00
sg9
Nsg15
NsbsVlactose
p9362
g0
(g1
g2
Ntp9363
Rp9364
(dp9365
g6
Nsg8
I00
sg9
Nsg15
NsbsVcame
p9366
g0
(g1
g2
Ntp9367
Rp9368
(dp9369
g6
Nsg8
I00
sg9
Nsg15
NsbsVrule
p9370
g0
(g1
g2
Ntp9371
Rp9372
(dp9373
g6
Nsg8
I00
sg9
Nsg15
NsbsVSleep
p9374
g0
(g1
g2
Ntp9375
Rp9376
(dp9377
g6
Nsg8
I00
sg9
Nsg15
NsbsVgynecologist
p9378
g0
(g1
g2
Ntp9379
Rp9380
(dp9381
g6
Nsg8
I00
sg9
Nsg15
NsbsVunderstand
p9382
g0
(g1
g2
Ntp9383
Rp9384
(dp9385
g6
Nsg8
I00
sg9
Nsg15
Nsbssg15
Nsb.